(dp1
S'output'
p2
S"<type 'exceptions.SyntaxError'> invalid select attribute: order"
p3
sS'layer'
p4
S'/Users/dorme/Research/SAFE/Web2Py/web2py/applications/Rainforest_Rhythm/controllers/default.py'
p5
sS'code'
p6
S'# -*- coding: utf-8 -*-\n# this file is released under public domain and you can use without limitations\n\nfrom gluon.serializers import json\nimport itertools\nimport math\nfrom pydub import AudioSegment\nimport os\n\n#########################################################################\n## This is a sample controller\n## - index is the default action of any application\n## - user is required for authentication and authorization\n## - download is for downloading files uploaded in the db (does streaming)\n#########################################################################\n\ndef index():\n\t"""\n\texample action using the internationalization operator T and flash\n\trendered by views/default/index.html or views/generic.html\n\n\tif you need a simple wiki simply replace the two lines below with:\n\treturn auth.wiki()\n\t"""\n\tresponse.flash = T("Hello World")\n\treturn dict(message=T(\'Welcome to web2py!\'))\n\ndef player():\n\t\n\t"""\n\tExposes the wavesurfer player, loading a particular audio file \n\tand the calls associated with it\n\t"""\n\t\n\tif request.vars[\'audio_id\']:\n\t\trecord = db.audio(request.vars[\'audio_id\'])\n\telse:\n\t\trecord = db.audio(1)\n\t\n\tif record.previous_part:\n\t\tbackward_link = A(I(_class=\'glyphicon glyphicon-chevron-left\'),\n\t\t\t\t\t\t  _href=URL(\'default\',\'player\', vars={\'audio_id\': record.previous_part}))\n\telse:\n\t\tbackward_link = I()\n\t\n\tif record.next_part:\n\t\tforward_link = A(I(_class=\'glyphicon glyphicon-chevron-right\'),\n\t\t\t\t\t\t  _href=URL(\'default\',\'player\', vars={\'audio_id\':record.next_part}))\n\telse:\n\t\tforward_link = I()\n\t\n\t# get the calls and linked identifications for this audio, using left joins\n\t# to allow calls with no identification\n\taudio = (db.calls.audio_id == record.id)\n\t\n\tdata = db(audio).select(db.calls.id,\n\t\t\t\t\t\t\tdb.calls.start_time,\n\t\t\t\t\t\t\tdb.calls.end_time,\n\t\t\t\t\t\t\tdb.identifications.id,\n\t\t\t\t\t\t\tdb.identifications.current_score,\n\t\t\t\t\t\t\tdb.identifications.n_scores,\n\t\t\t\t\t\t\tdb.taxa.ALL,\n\t\t\t\t\t\t\tleft=[db.identifications.on(db.calls.id == db.identifications.call_id), \n\t\t\t\t\t\t\t\t  db.taxa.on(db.identifications.taxon_id == db.taxa.id)],\n\t\t\t\t\t\t\torder = db.calls.id)\n\t\n\t# Build the data into a list of call list items with  collapsible list items \n\t# showing any associated ID.\n\t\n\tif len(data) > 0:\n\t\t# build the data into a dictionary of identifications by call_id \n\t\t# NB: This groupby relies on DB query above ordering by the key!\n\t\tident_dict = {k: list(g) for k, g in itertools.groupby(ident_info, lambda x: x.calls.id)}\n\t\t\n\t\tprint ident_dict\n\t\t\n\t\titems = []\n\t\t\n\t\t# The structure here is a list-group of the call information, each of which is followed\n\t\t# by its own nested list group of the identifications, which are collapsible. So, users\n\t\t# will always see a list of calls, but the ids are controllable.\n\t\t\n\t\tfor r in rows:\n\t\t\t# call header row, showing play and link to call page.\n\t\t\tregion_info = LI(SPAN(_class="glyphicon glyphicon-lg glyphicon-play-circle", _id=\'play_call_\' + str(r.id)),\n\t\t\t\t\t\t\t XML(\'&nbsp\'),\n\t\t\t\t\t\t\t I(\'{:0.2f} -- {:0.2f}: {:0.2f} seconds\'.format(r.start_time, r.end_time, \n\t\t\t\t\t\t\t\t\t\t\t\t\t\t\t\t\t\t r.end_time - r.start_time)),\n\t\t\t\t\t\t\t A(SPAN(_class="glyphicon glyphicon-lg glyphicon-info-sign pull-right"), \n\t\t\t\t\t\t\t\t\t_href=URL(\'calls\', vars={\'call_id\': r.id})),\n\t\t\t\t\t\t\t   _class=\'list-group-item call_info\',\n\t\t\t\t\t\t\t   _onmouseover=\'highlight_call(this)\',\n\t\t\t\t\t\t\t   _onmouseout=\'dehighlight_call(this)\',\n\t\t\t\t\t\t\t   _id = \'highlight_\' + str(r.id))\n\t\t\titems.append(region_info)\n\t\t\n\t\t\t#  compile identification information for this call\n\t\t\tcalls = []\n\t\t\tif r.id in ident_dict:\n\t\t\t\tfor c in ident_dict[r.id]:\n\t\t\t\t\tcall_info =\t LI(DIV(DIV(c.taxa.common_name, \' (\',\n\t\t\t\t\t\t\t\t\t\t\tI(c.taxa.genus, \' \', c.taxa.species), \')\',\n\t\t\t\t\t\t\t\t\t\t\t_class=\'col-sm-6\'),\n\t\t\t\t\t\t\t\t\t\t_votebar(c.identifications.current_score,\n\t\t\t\t\t\t\t\t\t\t\t\t c.identifications.n_scores,\n\t\t\t\t\t\t\t\t\t\t\t\t c.identifications.id,),\n\t\t\t\t\t\t\t\t\t\t_class=\'row\'),\n\t\t\t\t\t\t\t\t\t_class=\'list-group-item small call_id\')\n\t\t\t\t\tcalls.append(call_info)\n\t\t\telse:\n\t\t\t\tcalls.append(LI("No identification proposed", _class=\'list-group-item small call_id\'))\n\t\t\n\t\t\t# append the calls as a collapiblelist group\n\t\t\titems.append(DIV(calls, _class=\'list-group collapse\', _id=\'call\' + str(r.id)))\n\t\n\t\tcalls_block = DIV(DIV(DIV("{} calls marked in this recording".format(len(rows)),\n\t\t\t\t\t\t\t\t  _class="panel-heading panel-warning"),\n\t\t\t\t\t\t\t  DIV(*items, _class="panel list-group"),\n\t\t\t\t\t\t _class="panel panel-default"),\n\t\t\t\t\t\t _class="container")\n\telse:\n\t\tcalls_block = DIV(DIV(DIV("No calls yet marked this recording",\n\t\t\t\t\t\t\t\t  _class="panel-heading panel-warning"),\n\t\t\t\t\t\t _class="panel panel-default"),\n\t\t\t\t\t\t _class="container")\n\t\n\t\n\t# ... update names to match the wavesurfer_js region properties\n\t# - start is a reserved word in the web2py framework so can\'t be used directly\n\t# - add an attribute to identify new regions from existing ones.\n\tfor r in rows:\n\t\tr.update({\'start\': r[\'start_time\'], \'end\': r[\'end_time\'], \'attributes\':{\'type\': \'fixed\'}})\n\t\n\t# serialise as JSON to pass to the javascript that loads the regions on the wavesurfer\n\trows = json(rows)\n\t\n\t# pass summary data of identifications to allow javascript \n\t# to load ids for a selected call on the client side\n\treturn dict(record=record, backward_link=backward_link, calls_block=calls_block,\n\t\t\t\tforward_link=forward_link, rows=rows)\n\ndef _seconds_to_time(val):\n\t\n\tm = int(val // 60)\n\ts = int(val % 60)\n\tts = int(val % 1 * 10)\n\t\n\treturn \'{}:{}.{}\'.format(m,s,ts)\n\n@auth.requires_login()\ndef create_call():\n\t\n\taudio_id = request.vars[\'audio_id\']\n\tsource_file = db.audio[audio_id].filename\n\tsource_path = os.path.join(request.folder, \'static\', \'audio\', source_file)\n\tstart = float(request.vars[\'start\'])\n\tend = float(request.vars[\'end\'])\n\t\n\tcall_id = _extract_call_and_add_to_db(source_path, audio_id, start, end, auth.user.id)\n\t\n\treturn call_id \n\n@auth.requires_login()\ndef my_vote():\n\t\n\t"""\n\tInserts a user vote for a particular ID, note that the system keeps\n\ta record of previous votes, rather than just updating them, so the \n\tprevious votes are flagged as replaced. Then calculates and updates \n\tthe weighted mean for the identification\n\t"""\n\t\n\t# get the variables from the call\n\tid_id = request.vars[\'id\']\n\tscore = request.vars[\'score\']\n\t\n\t# get any existing scores by this user for this id \n\t# and update them as replaced\n\tdb((db.scores.user_id == auth.user_id) &\n\t   (db.scores.identification_id == id_id)).update(replaced=True)\n\t\n\t# put in the new values\n\tdb.scores.insert(identification_id=id_id, user_id=auth.user_id,\n\t\t\t\t\t score=score, datetime=datetime.datetime.now())\n\t\n\t# update the identifications with the new score\n\tthese_scores = db((db.scores.identification_id == id_id) &\n\t\t\t\t\t  (db.auth_user.id == db.scores.user_id) &\n\t\t\t\t\t  (db.scores.replaced == False))\n\n\t# get the scores and skills associated with them\n\t# and calculate their weighted meanand the number of scores\n\tid_score  = these_scores.select(((db.auth_user.id_skill * db.scores.score).sum() / \n\t\t\t\t\t\t\t\t\t (db.auth_user.id_skill).sum()).with_alias(\'wt_mean\'),\n\t\t\t\t\t\t\t\t\tdb.scores.score.count().with_alias(\'n_scores\')).first()\n\t\n\tdb(db.identifications.id == id_id).update(current_score=id_score[\'wt_mean\'],\n\t\t\t\t\t\t\t\t\t\t\t  n_scores=id_score[\'n_scores\'])\n\t\n\treturn dict(id_id=id_id, id_score=id_score[\'wt_mean\'])\n\ndef identifications():\n\t\n\t# Create only applies to logged in users\n\tform = SQLFORM.grid((db.identifications.taxon_id == db.taxa.id),\n\t\t\t\t\t\tfields = [db.taxa.common_name, db.taxa.genus, \n\t\t\t\t\t\t\t\t  db.taxa.species, db.taxa.subspecies,\n\t\t\t\t\t\t\t\t  db.identifications.current_score,\n\t\t\t\t\t\t\t\t  db.identifications.n_scores],\n\t\t\t\t\t\tcsv=False,\n\t\t\t\t\t\tcreate=True,\n\t\t\t\t\t\teditable=False,\n\t\t\t\t\t\tdetails=True,\n\t\t\t\t\t\tdeletable=False)\n\t\n\treturn dict(form=form)\n\n\ndef calls():\n\t\n\t# retrieve the call id and audio\n\tif request.vars[\'call_id\']:\n\t\n\t\trecord = db.calls(request.vars[\'call_id\'])\n\t\taudio = db.audio(record.audio_id)\n\t\n\telse:\n\t\t# TODO - where to redirect to\n\t\tredirect(\'index\')\n\t\n\t# get the identifications for this call\n\tidents_query = db((db.identifications.call_id == record.id) &\n\t\t\t\t\t  (db.identifications.taxon_id == db.taxa.id) &\n\t\t\t\t\t  (db.identifications.user_id == db.auth_user.id))\n\t\n\tident_rows = idents_query.select(db.identifications.id,\n\t\t\t\t\t\t\t\t\t db.identifications.created_on,\n\t\t\t\t\t\t\t\t\t db.identifications.current_score,\n\t\t\t\t\t\t\t\t\t db.identifications.n_scores,\n\t\t\t\t\t\t\t\t\t db.taxa.common_name,\n\t\t\t\t\t\t\t\t\t db.taxa.genus,\n\t\t\t\t\t\t\t\t\t db.taxa.species,\n\t\t\t\t\t\t\t\t\t db.taxa.subspecies,\n\t\t\t\t\t\t\t\t\t db.taxa.thumbnail,\n\t\t\t\t\t\t\t\t\t db.auth_user.first_name,\n\t\t\t\t\t\t\t\t\t db.auth_user.last_name)\n\t\n\t# get a list of arguments to set data- options, can\'t set\n\t# arguments with a hyphen in the function\n\titems = []\n\tfor r in ident_rows:\n\t\t# Identification block showing species, proposer and controls\n\t\tident_info = LI(DIV(DIV(IMG(_src=URL(\'static\', \'taxa\', args=r.taxa.thumbnail),\n\t\t\t\t\t\t\t\t\t_width="50", _class="media-object"),\n\t\t\t\t\t\t\t\t_class="media-left"),\n\t\t\t\t\t\t\tDIV(DIV(H5(XML(\'{} (<i>{} {}</i>)\'.format(r.taxa.common_name,\n\t\t\t\t\t\t\t\t\t\t   r.taxa.genus,  r.taxa.species)),\n\t\t\t\t\t\t\t\t\t\t   _class=\'media-heading\'),\n\t\t\t\t\t\t\t\t\t\tTAG.small(\' Proposed by {} {} on {}.\'.format(r.auth_user.first_name, \n\t\t\t\t\t\t\t\t\t\t\t\t  r.auth_user.last_name, r.identifications.created_on)),\n\t\t\t\t\t\t\t\t\t_class=\'col-sm-6\'),\n\t\t\t\t\t\t\t\tDIV(_votebar(r.identifications.current_score, \n\t\t\t\t\t\t\t\t\t\t\t r.identifications.n_scores,\n\t\t\t\t\t\t\t\t\t\t\t r.identifications.id),\n\t\t\t\t\t\t\t\t\t_your_vote(1, r.identifications.id),\n\t\t\t\t\t\t\t\t\t_class=\'col-sm-6\'),\n\t\t\t\t\t\t\t\t_class=\'media-body\'),\n\t\t\t\t\t\t\t_class="media"),\n\t\t\t\t\t\t_class=\'list-group-item call_info\')\n\t\t\n\t\titems.append(DIV(ident_info, _id=\'ident\' + str(r.identifications.id)))\n\t\n\n\t\n\tlist_group = DIV(*items, _class="panel list-group")\n\t\n\treturn dict(record=record, audio=audio, list_group=list_group) #, modal_str=modal_str)\n\ndef recordings():\n\t\n\tlinks = [dict(header = \'\', \n\t\t\t\t  body = lambda row: A(SPAN(\'\',_class="glyphicon glyphicon-play"),\n\t\t\t\t\t\t\t\t\t   XML(\'&nbsp;\'),\n\t\t\t\t\t\t\t\t\t   SPAN(\'Play\', _class="buttontext button"),\n\t\t\t\t\t\t\t\t\t   _class="btn btn-default", \n\t\t\t\t\t\t\t\t\t   _href=URL("player", vars={\'audio_id\':row.id}),\n\t\t\t\t\t\t\t\t\t   _style=\'padding: 3px 5px 3px 5px;\'))]\t \n\t\n\tform = SQLFORM.grid(db.audio,\n\t\t\t\t\t\tfields=[db.audio.filename, db.audio.start_datetime, db.audio.length_seconds],\n\t\t\t\t\t\tcsv=False,\n\t\t\t\t\t\tcreate=False,\n\t\t\t\t\t\teditable=False,\n\t\t\t\t\t\tdetails=False,\n\t\t\t\t\t\tdeletable=False,\n\t\t\t\t\t\tlinks=links)\n\t\n\treturn dict(form=form)\n\ndef taxa():\n\t\n\t# Create only applies to logged in users\n\tform = SQLFORM.grid(db.taxa,\n\t\t\t\t\t\tfields = [db.taxa.common_name, db.taxa.genus, \n\t\t\t\t\t\t\t\t  db.taxa.species, db.taxa.subspecies],\n\t\t\t\t\t\tcsv=False,\n\t\t\t\t\t\tcreate=True,\n\t\t\t\t\t\teditable=False,\n\t\t\t\t\t\tdetails=True,\n\t\t\t\t\t\tdeletable=False)\n\t\n\treturn dict(form=form)\n\ndef taxon():\n\t\n\tif request.vars[\'taxon_id\']:\n\t\trecord = db.taxa(request.vars[\'taxon_id\'])\n\telse:\n\t\trecord = db.taxa(1)\n\t\n\t\n\tform = SQLFORM(db.taxa, record=record, readonly=True)\n\t\n\treturn dict(form=form)\n\n\ndef user():\n\t"""\n\texposes:\n\thttp://..../[app]/default/user/login\n\thttp://..../[app]/default/user/logout\n\thttp://..../[app]/default/user/register\n\thttp://..../[app]/default/user/profile\n\thttp://..../[app]/default/user/retrieve_password\n\thttp://..../[app]/default/user/change_password\n\thttp://..../[app]/default/user/bulk_register\n\tuse @auth.requires_login()\n\t\t@auth.requires_membership(\'group name\')\n\t\t@auth.requires_permission(\'read\',\'table name\',record_id)\n\tto decorate functions that need access control\n\talso notice there is http://..../[app]/appadmin/manage/auth to allow administrator to manage users\n\t"""\n\treturn dict(form=auth())\n\n\n@cache.action()\ndef download():\n\t"""\n\tallows downloading of uploaded files\n\thttp://..../[app]/default/download/[filename]\n\t"""\n\treturn response.download(request, db)\n\n\ndef call():\n\t"""\n\texposes services. for example:\n\thttp://..../[app]/default/call/jsonrpc\n\tdecorate with @services.jsonrpc the functions to expose\n\tsupports xml, json, xmlrpc, jsonrpc, amfrpc, rss, csv\n\t"""\n\treturn service()\n\n\n\nresponse._vars=response._caller(player)\n'
p7
sS'snapshot'
p8
(dp9
S'exception'
p10
(dp11
S'__getslice__'
p12
S"<method-wrapper '__getslice__' of exceptions.SyntaxError object>"
p13
sS'text'
p14
S'None'
p15
sS'__str__'
p16
S"<method-wrapper '__str__' of exceptions.SyntaxError object>"
p17
sS'__reduce__'
p18
S'<built-in method __reduce__ of exceptions.SyntaxError object>'
p19
sS'__dict__'
p20
S'{}'
p21
sS'__sizeof__'
p22
S'<built-in method __sizeof__ of exceptions.SyntaxError object>'
p23
sS'__init__'
p24
S"<method-wrapper '__init__' of exceptions.SyntaxError object>"
p25
sS'__setattr__'
p26
S"<method-wrapper '__setattr__' of exceptions.SyntaxError object>"
p27
sS'__reduce_ex__'
p28
S'<built-in method __reduce_ex__ of exceptions.SyntaxError object>'
p29
sS'__new__'
p30
S'<built-in method __new__ of type object>'
p31
sS'__format__'
p32
S'<built-in method __format__ of exceptions.SyntaxError object>'
p33
sS'__class__'
p34
S"<type 'exceptions.SyntaxError'>"
p35
sS'filename'
p36
S'None'
p37
sS'lineno'
p38
S'None'
p39
sS'msg'
p40
S"'invalid select attribute: order'"
p41
sS'__doc__'
p42
S"'Invalid syntax.'"
p43
sS'__getitem__'
p44
S"<method-wrapper '__getitem__' of exceptions.SyntaxError object>"
p45
sS'__setstate__'
p46
S'<built-in method __setstate__ of exceptions.SyntaxError object>'
p47
sS'__getattribute__'
p48
S"<method-wrapper '__getattribute__' of exceptions.SyntaxError object>"
p49
sS'print_file_and_line'
p50
S'None'
p51
sS'args'
p52
S"('invalid select attribute: order',)"
p53
sS'__subclasshook__'
p54
S'<built-in method __subclasshook__ of type object>'
p55
sS'offset'
p56
S'None'
p57
sS'__unicode__'
p58
S'<built-in method __unicode__ of exceptions.SyntaxError object>'
p59
sS'__delattr__'
p60
S"<method-wrapper '__delattr__' of exceptions.SyntaxError object>"
p61
sS'__repr__'
p62
S"<method-wrapper '__repr__' of exceptions.SyntaxError object>"
p63
sS'__hash__'
p64
S"<method-wrapper '__hash__' of exceptions.SyntaxError object>"
p65
ssS'evalue'
p66
S'invalid select attribute: order'
p67
sS'request'
p68
cgluon.html
XML_unpickle
p69
(S's\xe1X\x00\x00<div><table><tr><td style="font-weight:bold;vertical-align:top;">ajax</td><td style="vertical-align:top;">:</td><td><div>False</div></td></tr><tr><td style="font-weight:bold;vertical-align:top;">application</td><td style="vertical-align:top;">:</td><td><div>Rainforest_Rhythm</div></td></tr><tr><td style="font-weight:bold;vertical-align:top;">args</td><td style="vertical-align:top;">:</td><td><div><table></table></div></td></tr><tr><td style="font-weight:bold;vertical-align:top;">cid</td><td style="vertical-align:top;">:</td><td><div>None</div></td></tr><tr><td style="font-weight:bold;vertical-align:top;">client</td><td style="vertical-align:top;">:</td><td><div>127.0.0.1</div></td></tr><tr><td style="font-weight:bold;vertical-align:top;">controller</td><td style="vertical-align:top;">:</td><td><div>default</div></td></tr><tr><td style="font-weight:bold;vertical-align:top;">cookies</td><td style="vertical-align:top;">:</td><td><div><table><tr><td style="font-weight:bold;vertical-align:top;">session_id_admin</td><td style="vertical-align:top;">:</td><td><div>127.0.0.1-ad0ae3f9-0307-4d77-8dff-02b7f4d47f4d<table><tr><td style="font-weight:bold;vertical-align:top;">comment</td><td style="vertical-align:top;">:</td><td><div></div></td></tr><tr><td style="font-weight:bold;vertical-align:top;">domain</td><td style="vertical-align:top;">:</td><td><div></div></td></tr><tr><td style="font-weight:bold;vertical-align:top;">expires</td><td style="vertical-align:top;">:</td><td><div></div></td></tr><tr><td style="font-weight:bold;vertical-align:top;">httponly</td><td style="vertical-align:top;">:</td><td><div></div></td></tr><tr><td style="font-weight:bold;vertical-align:top;">max-age</td><td style="vertical-align:top;">:</td><td><div></div></td></tr><tr><td style="font-weight:bold;vertical-align:top;">path</td><td style="vertical-align:top;">:</td><td><div></div></td></tr><tr><td style="font-weight:bold;vertical-align:top;">secure</td><td style="vertical-align:top;">:</td><td><div></div></td></tr><tr><td style="font-weight:bold;vertical-align:top;">version</td><td style="vertical-align:top;">:</td><td><div></div></td></tr></table></div></td></tr><tr><td style="font-weight:bold;vertical-align:top;">session_id_rainforest_rhythm</td><td style="vertical-align:top;">:</td><td><div>127.0.0.1-97b81f58-ac39-4ff7-9ffd-5e44f6ff9431<table><tr><td style="font-weight:bold;vertical-align:top;">comment</td><td style="vertical-align:top;">:</td><td><div></div></td></tr><tr><td style="font-weight:bold;vertical-align:top;">domain</td><td style="vertical-align:top;">:</td><td><div></div></td></tr><tr><td style="font-weight:bold;vertical-align:top;">expires</td><td style="vertical-align:top;">:</td><td><div></div></td></tr><tr><td style="font-weight:bold;vertical-align:top;">httponly</td><td style="vertical-align:top;">:</td><td><div></div></td></tr><tr><td style="font-weight:bold;vertical-align:top;">max-age</td><td style="vertical-align:top;">:</td><td><div></div></td></tr><tr><td style="font-weight:bold;vertical-align:top;">path</td><td style="vertical-align:top;">:</td><td><div></div></td></tr><tr><td style="font-weight:bold;vertical-align:top;">secure</td><td style="vertical-align:top;">:</td><td><div></div></td></tr><tr><td style="font-weight:bold;vertical-align:top;">version</td><td style="vertical-align:top;">:</td><td><div></div></td></tr></table></div></td></tr></table></div></td></tr><tr><td style="font-weight:bold;vertical-align:top;">env</td><td style="vertical-align:top;">:</td><td><div><table><tr><td style="font-weight:bold;vertical-align:top;">HTTP_ACCEPT</td><td style="vertical-align:top;">:</td><td><div>text/html,application/xhtml+xml,application/xml;q=0.9,image/webp,*/*;q=0.8</div></td></tr><tr><td style="font-weight:bold;vertical-align:top;">HTTP_ACCEPT_ENCODING</td><td style="vertical-align:top;">:</td><td><div>gzip, deflate, sdch, br</div></td></tr><tr><td style="font-weight:bold;vertical-align:top;">HTTP_ACCEPT_LANGUAGE</td><td style="vertical-align:top;">:</td><td><div>en-US,en;q=0.8</div></td></tr><tr><td style="font-weight:bold;vertical-align:top;">HTTP_CACHE_CONTROL</td><td style="vertical-align:top;">:</td><td><div>no-cache</div></td></tr><tr><td style="font-weight:bold;vertical-align:top;">HTTP_CONNECTION</td><td style="vertical-align:top;">:</td><td><div>keep-alive</div></td></tr><tr><td style="font-weight:bold;vertical-align:top;">HTTP_COOKIE</td><td style="vertical-align:top;">:</td><td><div>session_id_rainforest_rhythm=127.0.0.1-97b81f58-ac39-4ff7-9ffd-5e44f6ff9431; session_id_admin=127.0.0.1-ad0ae3f9-0307-4d77-8dff-02b7f4d47f4d</div></td></tr><tr><td style="font-weight:bold;vertical-align:top;">HTTP_HOST</td><td style="vertical-align:top;">:</td><td><div>127.0.0.1:8000</div></td></tr><tr><td style="font-weight:bold;vertical-align:top;">HTTP_PRAGMA</td><td style="vertical-align:top;">:</td><td><div>no-cache</div></td></tr><tr><td style="font-weight:bold;vertical-align:top;">HTTP_UPGRADE_INSECURE_REQUESTS</td><td style="vertical-align:top;">:</td><td><div>1</div></td></tr><tr><td style="font-weight:bold;vertical-align:top;">HTTP_USER_AGENT</td><td style="vertical-align:top;">:</td><td><div>Mozilla/5.0 (Macintosh; Intel Mac OS X 10_10_5) AppleWebKit/537.36 (KHTML, like Gecko) Chrome/57.0.2987.133 Safari/537.36</div></td></tr><tr><td style="font-weight:bold;vertical-align:top;">PATH_INFO</td><td style="vertical-align:top;">:</td><td><div>/Rainforest_Rhythm/player</div></td></tr><tr><td style="font-weight:bold;vertical-align:top;">QUERY_STRING</td><td style="vertical-align:top;">:</td><td><div>audio_id=1</div></td></tr><tr><td style="font-weight:bold;vertical-align:top;">REMOTE_ADDR</td><td style="vertical-align:top;">:</td><td><div>127.0.0.1</div></td></tr><tr><td style="font-weight:bold;vertical-align:top;">REMOTE_PORT</td><td style="vertical-align:top;">:</td><td><div>55359</div></td></tr><tr><td style="font-weight:bold;vertical-align:top;">REQUEST_METHOD</td><td style="vertical-align:top;">:</td><td><div>GET</div></td></tr><tr><td style="font-weight:bold;vertical-align:top;">SCRIPT_NAME</td><td style="vertical-align:top;">:</td><td><div></div></td></tr><tr><td style="font-weight:bold;vertical-align:top;">SERVER_NAME</td><td style="vertical-align:top;">:</td><td><div>lb-dormelap.sp.ic.ac.uk</div></td></tr><tr><td style="font-weight:bold;vertical-align:top;">SERVER_PORT</td><td style="vertical-align:top;">:</td><td><div>8000</div></td></tr><tr><td style="font-weight:bold;vertical-align:top;">SERVER_PROTOCOL</td><td style="vertical-align:top;">:</td><td><div>HTTP/1.1</div></td></tr><tr><td style="font-weight:bold;vertical-align:top;">SERVER_SOFTWARE</td><td style="vertical-align:top;">:</td><td><div>Rocket 1.2.6</div></td></tr><tr><td style="font-weight:bold;vertical-align:top;">app_folders</td><td style="vertical-align:top;">:</td><td><div>set([&#x27;/Users/dorme/Research/SAFE/Web2Py/web2py/applications/admin/&#x27;, &#x27;/Users/dorme/Research/SAFE/Web2Py/web2py/applications/Rainforest_Rhythm/&#x27;, &#x27;/Users/dorme/Research/SAFE/Web2Py/web2py/applications/SAFE_web/&#x27;])</div></td></tr><tr><td style="font-weight:bold;vertical-align:top;">applications_parent</td><td style="vertical-align:top;">:</td><td><div>/Users/dorme/Research/SAFE/Web2Py/web2py</div></td></tr><tr><td style="font-weight:bold;vertical-align:top;">cmd_args</td><td style="vertical-align:top;">:</td><td><div><table></table></div></td></tr><tr><td style="font-weight:bold;vertical-align:top;">cmd_options</td><td style="vertical-align:top;">:</td><td><div>&lt;Values at 0x104d00200: {&#x27;verbose&#x27;: False, &#x27;ip&#x27;: &#x27;127.0.0.1&#x27;, &#x27;debuglevel&#x27;: 30, &#x27;with_scheduler&#x27;: False, &#x27;ips&#x27;: [&#x27;129.31.3.3&#x27;], &#x27;shutdown_timeout&#x27;: 5, &#x27;taskbar&#x27;: False, &#x27;with_coverage&#x27;: False, &#x27;scheduler_groups&#x27;: None, &#x27;port&#x27;: 8000, &#x27;maxthreads&#x27;: None, &#x27;softcron&#x27;: False, &#x27;server_name&#x27;: &#x27;lb-dormelap.sp.ic.ac.uk&#x27;, &#x27;bpython&#x27;: False, &#x27;nogui&#x27;: False, &#x27;pid_filename&#x27;: &#x27;httpserver.pid&#x27;, &#x27;print_errors&#x27;: False, &#x27;extcron&#x27;: False, &#x27;runcron&#x27;: False, &#x27;run_system_tests&#x27;: False, &#x27;test&#x27;: None, &#x27;folder&#x27;: &#x27;/Users/dorme/Research/SAFE/Web2Py/web2py&#x27;, &#x27;config&#x27;: &#x27;&#x27;, &#x27;minthreads&#x27;: None, &#x27;shell&#x27;: None, &#x27;run&#x27;: &#x27;&#x27;, &#x27;log_filename&#x27;: &#x27;httpserver.log&#x27;, &#x27;profiler_dir&#x27;: None, &#x27;args&#x27;: [&#x27;&#x27;], &#x27;socket_timeout&#x27;: 5, &#x27;ssl_ca_certificate&#x27;: None, &#x27;scheduler&#x27;: None, &#x27;interfaces&#x27;: None, &#x27;ssl_private_key&#x27;: &#x27;&#x27;, &#x27;gae&#x27;: None, &#x27;password&#x27;: &#x27;&lt;ask&gt;&#x27;, &#x27;request_queue_size&#x27;: 5, &#x27;ssl_certificate&#x27;: &#x27;&#x27;, &#x27;cronjob&#x27;: False, &#x27;numthreads&#x27;: None, &#x27;quiet&#x27;: False, &#x27;import_models&#x27;: False, &#x27;timeout&#x27;: 10, &#x27;plain&#x27;: False, &#x27;nobanner&#x27;: False}&gt;</div></td></tr><tr><td style="font-weight:bold;vertical-align:top;">db_sessions</td><td style="vertical-align:top;">:</td><td><div>set([])</div></td></tr><tr><td style="font-weight:bold;vertical-align:top;">debugging</td><td style="vertical-align:top;">:</td><td><div>False</div></td></tr><tr><td style="font-weight:bold;vertical-align:top;">gluon_parent</td><td style="vertical-align:top;">:</td><td><div>/Users/dorme/Research/SAFE/Web2Py/web2py</div></td></tr><tr><td style="font-weight:bold;vertical-align:top;">http_accept</td><td style="vertical-align:top;">:</td><td><div>text/html,application/xhtml+xml,application/xml;q=0.9,image/webp,*/*;q=0.8</div></td></tr><tr><td style="font-weight:bold;vertical-align:top;">http_accept_encoding</td><td style="vertical-align:top;">:</td><td><div>gzip, deflate, sdch, br</div></td></tr><tr><td style="font-weight:bold;vertical-align:top;">http_accept_language</td><td style="vertical-align:top;">:</td><td><div>en-US,en;q=0.8</div></td></tr><tr><td style="font-weight:bold;vertical-align:top;">http_cache_control</td><td style="vertical-align:top;">:</td><td><div>no-cache</div></td></tr><tr><td style="font-weight:bold;vertical-align:top;">http_connection</td><td style="vertical-align:top;">:</td><td><div>keep-alive</div></td></tr><tr><td style="font-weight:bold;vertical-align:top;">http_cookie</td><td style="vertical-align:top;">:</td><td><div>session_id_rainforest_rhythm=127.0.0.1-97b81f58-ac39-4ff7-9ffd-5e44f6ff9431; session_id_admin=127.0.0.1-ad0ae3f9-0307-4d77-8dff-02b7f4d47f4d</div></td></tr><tr><td style="font-weight:bold;vertical-align:top;">http_host</td><td style="vertical-align:top;">:</td><td><div>127.0.0.1:8000</div></td></tr><tr><td style="font-weight:bold;vertical-align:top;">http_pragma</td><td style="vertical-align:top;">:</td><td><div>no-cache</div></td></tr><tr><td style="font-weight:bold;vertical-align:top;">http_upgrade_insecure_requests</td><td style="vertical-align:top;">:</td><td><div>1</div></td></tr><tr><td style="font-weight:bold;vertical-align:top;">http_user_agent</td><td style="vertical-align:top;">:</td><td><div>Mozilla/5.0 (Macintosh; Intel Mac OS X 10_10_5) AppleWebKit/537.36 (KHTML, like Gecko) Chrome/57.0.2987.133 Safari/537.36</div></td></tr><tr><td style="font-weight:bold;vertical-align:top;">is_jython</td><td style="vertical-align:top;">:</td><td><div>False</div></td></tr><tr><td style="font-weight:bold;vertical-align:top;">is_pypy</td><td style="vertical-align:top;">:</td><td><div>False</div></td></tr><tr><td style="font-weight:bold;vertical-align:top;">is_source</td><td style="vertical-align:top;">:</td><td><div>True</div></td></tr><tr><td style="font-weight:bold;vertical-align:top;">local_hosts</td><td style="vertical-align:top;">:</td><td><div><table><tr><td><div>129.31.3.3</div></td></tr><tr><td><div>::1</div></td></tr><tr><td><div>::ffff:127.0.0.1</div></td></tr><tr><td><div>127.0.0.1</div></td></tr><tr><td><div>lb-dormelap.sp.ic.ac.uk</div></td></tr></table></div></td></tr><tr><td style="font-weight:bold;vertical-align:top;">path_info</td><td style="vertical-align:top;">:</td><td><div>/Rainforest_Rhythm/player</div></td></tr><tr><td style="font-weight:bold;vertical-align:top;">query_string</td><td style="vertical-align:top;">:</td><td><div>audio_id=1</div></td></tr><tr><td style="font-weight:bold;vertical-align:top;">remote_addr</td><td style="vertical-align:top;">:</td><td><div>127.0.0.1</div></td></tr><tr><td style="font-weight:bold;vertical-align:top;">remote_port</td><td style="vertical-align:top;">:</td><td><div>55359</div></td></tr><tr><td style="font-weight:bold;vertical-align:top;">request_method</td><td style="vertical-align:top;">:</td><td><div>GET</div></td></tr><tr><td style="font-weight:bold;vertical-align:top;">request_uri</td><td style="vertical-align:top;">:</td><td><div>/Rainforest_Rhythm/default/player?audio_id=1</div></td></tr><tr><td style="font-weight:bold;vertical-align:top;">script_name</td><td style="vertical-align:top;">:</td><td><div></div></td></tr><tr><td style="font-weight:bold;vertical-align:top;">server_name</td><td style="vertical-align:top;">:</td><td><div>lb-dormelap.sp.ic.ac.uk</div></td></tr><tr><td style="font-weight:bold;vertical-align:top;">server_port</td><td style="vertical-align:top;">:</td><td><div>8000</div></td></tr><tr><td style="font-weight:bold;vertical-align:top;">server_protocol</td><td style="vertical-align:top;">:</td><td><div>HTTP/1.1</div></td></tr><tr><td style="font-weight:bold;vertical-align:top;">server_software</td><td style="vertical-align:top;">:</td><td><div>Rocket 1.2.6</div></td></tr><tr><td style="font-weight:bold;vertical-align:top;">web2py_original_uri</td><td style="vertical-align:top;">:</td><td><div>/Rainforest_Rhythm/player?audio_id=1</div></td></tr><tr><td style="font-weight:bold;vertical-align:top;">web2py_path</td><td style="vertical-align:top;">:</td><td><div>/Users/dorme/Research/SAFE/Web2Py/web2py</div></td></tr><tr><td style="font-weight:bold;vertical-align:top;">web2py_version</td><td style="vertical-align:top;">:</td><td><div>2.13.2-stable+timestamp.2015.12.18.11.00.46</div></td></tr><tr><td style="font-weight:bold;vertical-align:top;">wsgi.errors</td><td style="vertical-align:top;">:</td><td><div>&lt;open file &#x27;&lt;stderr&gt;&#x27;, mode &#x27;w&#x27; at 0x1002971e0&gt;</div></td></tr><tr><td style="font-weight:bold;vertical-align:top;">wsgi.file_wrapper</td><td style="vertical-align:top;">:</td><td><div>&lt;class wsgiref.util.FileWrapper at 0x10432c258&gt;</div></td></tr><tr><td style="font-weight:bold;vertical-align:top;">wsgi.input</td><td style="vertical-align:top;">:</td><td><div>&lt;socket._fileobject object at 0x10f096a50&gt;</div></td></tr><tr><td style="font-weight:bold;vertical-align:top;">wsgi.multiprocess</td><td style="vertical-align:top;">:</td><td><div>False</div></td></tr><tr><td style="font-weight:bold;vertical-align:top;">wsgi.multithread</td><td style="vertical-align:top;">:</td><td><div>True</div></td></tr><tr><td style="font-weight:bold;vertical-align:top;">wsgi.run_once</td><td style="vertical-align:top;">:</td><td><div>False</div></td></tr><tr><td style="font-weight:bold;vertical-align:top;">wsgi.url_scheme</td><td style="vertical-align:top;">:</td><td><div>http</div></td></tr><tr><td style="font-weight:bold;vertical-align:top;">wsgi.version</td><td style="vertical-align:top;">:</td><td><div><table><tr><td><div>1</div></td></tr><tr><td><div>0</div></td></tr></table></div></td></tr><tr><td style="font-weight:bold;vertical-align:top;">wsgi_errors</td><td style="vertical-align:top;">:</td><td><div>&lt;open file &#x27;&lt;stderr&gt;&#x27;, mode &#x27;w&#x27; at 0x1002971e0&gt;</div></td></tr><tr><td style="font-weight:bold;vertical-align:top;">wsgi_file_wrapper</td><td style="vertical-align:top;">:</td><td><div>&lt;class wsgiref.util.FileWrapper at 0x10432c258&gt;</div></td></tr><tr><td style="font-weight:bold;vertical-align:top;">wsgi_input</td><td style="vertical-align:top;">:</td><td><div>&lt;socket._fileobject object at 0x10f096a50&gt;</div></td></tr><tr><td style="font-weight:bold;vertical-align:top;">wsgi_multiprocess</td><td style="vertical-align:top;">:</td><td><div>False</div></td></tr><tr><td style="font-weight:bold;vertical-align:top;">wsgi_multithread</td><td style="vertical-align:top;">:</td><td><div>True</div></td></tr><tr><td style="font-weight:bold;vertical-align:top;">wsgi_run_once</td><td style="vertical-align:top;">:</td><td><div>False</div></td></tr><tr><td style="font-weight:bold;vertical-align:top;">wsgi_url_scheme</td><td style="vertical-align:top;">:</td><td><div>http</div></td></tr><tr><td style="font-weight:bold;vertical-align:top;">wsgi_version</td><td style="vertical-align:top;">:</td><td><div><table><tr><td><div>1</div></td></tr><tr><td><div>0</div></td></tr></table></div></td></tr></table></div></td></tr><tr><td style="font-weight:bold;vertical-align:top;">extension</td><td style="vertical-align:top;">:</td><td><div>html</div></td></tr><tr><td style="font-weight:bold;vertical-align:top;">folder</td><td style="vertical-align:top;">:</td><td><div>/Users/dorme/Research/SAFE/Web2Py/web2py/applications/Rainforest_Rhythm/</div></td></tr><tr><td style="font-weight:bold;vertical-align:top;">function</td><td style="vertical-align:top;">:</td><td><div>player</div></td></tr><tr><td style="font-weight:bold;vertical-align:top;">global_settings</td><td style="vertical-align:top;">:</td><td><div><table><tr><td style="font-weight:bold;vertical-align:top;">app_folders</td><td style="vertical-align:top;">:</td><td><div>set([&#x27;/Users/dorme/Research/SAFE/Web2Py/web2py/applications/admin/&#x27;, &#x27;/Users/dorme/Research/SAFE/Web2Py/web2py/applications/Rainforest_Rhythm/&#x27;, &#x27;/Users/dorme/Research/SAFE/Web2Py/web2py/applications/SAFE_web/&#x27;])</div></td></tr><tr><td style="font-weight:bold;vertical-align:top;">applications_parent</td><td style="vertical-align:top;">:</td><td><div>/Users/dorme/Research/SAFE/Web2Py/web2py</div></td></tr><tr><td style="font-weight:bold;vertical-align:top;">cmd_args</td><td style="vertical-align:top;">:</td><td><div><table></table></div></td></tr><tr><td style="font-weight:bold;vertical-align:top;">cmd_options</td><td style="vertical-align:top;">:</td><td><div>&lt;Values at 0x104d00200: {&#x27;verbose&#x27;: False, &#x27;ip&#x27;: &#x27;127.0.0.1&#x27;, &#x27;debuglevel&#x27;: 30, &#x27;with_scheduler&#x27;: False, &#x27;ips&#x27;: [&#x27;129.31.3.3&#x27;], &#x27;shutdown_timeout&#x27;: 5, &#x27;taskbar&#x27;: False, &#x27;with_coverage&#x27;: False, &#x27;scheduler_groups&#x27;: None, &#x27;port&#x27;: 8000, &#x27;maxthreads&#x27;: None, &#x27;softcron&#x27;: False, &#x27;server_name&#x27;: &#x27;lb-dormelap.sp.ic.ac.uk&#x27;, &#x27;bpython&#x27;: False, &#x27;nogui&#x27;: False, &#x27;pid_filename&#x27;: &#x27;httpserver.pid&#x27;, &#x27;print_errors&#x27;: False, &#x27;extcron&#x27;: False, &#x27;runcron&#x27;: False, &#x27;run_system_tests&#x27;: False, &#x27;test&#x27;: None, &#x27;folder&#x27;: &#x27;/Users/dorme/Research/SAFE/Web2Py/web2py&#x27;, &#x27;config&#x27;: &#x27;&#x27;, &#x27;minthreads&#x27;: None, &#x27;shell&#x27;: None, &#x27;run&#x27;: &#x27;&#x27;, &#x27;log_filename&#x27;: &#x27;httpserver.log&#x27;, &#x27;profiler_dir&#x27;: None, &#x27;args&#x27;: [&#x27;&#x27;], &#x27;socket_timeout&#x27;: 5, &#x27;ssl_ca_certificate&#x27;: None, &#x27;scheduler&#x27;: None, &#x27;interfaces&#x27;: None, &#x27;ssl_private_key&#x27;: &#x27;&#x27;, &#x27;gae&#x27;: None, &#x27;password&#x27;: &#x27;&lt;ask&gt;&#x27;, &#x27;request_queue_size&#x27;: 5, &#x27;ssl_certificate&#x27;: &#x27;&#x27;, &#x27;cronjob&#x27;: False, &#x27;numthreads&#x27;: None, &#x27;quiet&#x27;: False, &#x27;import_models&#x27;: False, &#x27;timeout&#x27;: 10, &#x27;plain&#x27;: False, &#x27;nobanner&#x27;: False}&gt;</div></td></tr><tr><td style="font-weight:bold;vertical-align:top;">db_sessions</td><td style="vertical-align:top;">:</td><td><div>set([])</div></td></tr><tr><td style="font-weight:bold;vertical-align:top;">debugging</td><td style="vertical-align:top;">:</td><td><div>False</div></td></tr><tr><td style="font-weight:bold;vertical-align:top;">gluon_parent</td><td style="vertical-align:top;">:</td><td><div>/Users/dorme/Research/SAFE/Web2Py/web2py</div></td></tr><tr><td style="font-weight:bold;vertical-align:top;">is_jython</td><td style="vertical-align:top;">:</td><td><div>False</div></td></tr><tr><td style="font-weight:bold;vertical-align:top;">is_pypy</td><td style="vertical-align:top;">:</td><td><div>False</div></td></tr><tr><td style="font-weight:bold;vertical-align:top;">is_source</td><td style="vertical-align:top;">:</td><td><div>True</div></td></tr><tr><td style="font-weight:bold;vertical-align:top;">local_hosts</td><td style="vertical-align:top;">:</td><td><div><table><tr><td><div>129.31.3.3</div></td></tr><tr><td><div>::1</div></td></tr><tr><td><div>::ffff:127.0.0.1</div></td></tr><tr><td><div>127.0.0.1</div></td></tr><tr><td><div>lb-dormelap.sp.ic.ac.uk</div></td></tr></table></div></td></tr><tr><td style="font-weight:bold;vertical-align:top;">web2py_version</td><td style="vertical-align:top;">:</td><td><div>2.13.2-stable+timestamp.2015.12.18.11.00.46</div></td></tr></table></div></td></tr><tr><td style="font-weight:bold;vertical-align:top;">is_https</td><td style="vertical-align:top;">:</td><td><div>False</div></td></tr><tr><td style="font-weight:bold;vertical-align:top;">is_local</td><td style="vertical-align:top;">:</td><td><div>True</div></td></tr><tr><td style="font-weight:bold;vertical-align:top;">is_restful</td><td style="vertical-align:top;">:</td><td><div>False</div></td></tr><tr><td style="font-weight:bold;vertical-align:top;">is_scheduler</td><td style="vertical-align:top;">:</td><td><div>False</div></td></tr><tr><td style="font-weight:bold;vertical-align:top;">is_shell</td><td style="vertical-align:top;">:</td><td><div>False</div></td></tr><tr><td style="font-weight:bold;vertical-align:top;">now</td><td style="vertical-align:top;">:</td><td><div>datetime.datetime(2017, 4, 3, 11, 49, 27, 142891)</div></td></tr><tr><td style="font-weight:bold;vertical-align:top;">url</td><td style="vertical-align:top;">:</td><td><div>/Rainforest_Rhythm/player</div></td></tr><tr><td style="font-weight:bold;vertical-align:top;">utcnow</td><td style="vertical-align:top;">:</td><td><div>datetime.datetime(2017, 4, 3, 10, 49, 27, 142899)</div></td></tr><tr><td style="font-weight:bold;vertical-align:top;">wsgi</td><td style="vertical-align:top;">:</td><td><div>&lt;gluon.main.LazyWSGI object at 0x10f093f90&gt;</div></td></tr></table></div>'
tRp70
sS'frames'
p71
(lp72
(dp73
S'file'
p74
S'/Users/dorme/Research/SAFE/Web2Py/web2py/gluon/restricted.py'
p75
sS'dump'
p76
(dp77
S'environment'
p78
S"{'A': <class 'gluon.html.A'>, 'ANY_OF': <class 'gluon.validators.ANY_OF'>, 'ASSIGNJS': <function ASSIGNJS>, 'AppConfig': <function AppConfig>, 'AudioSegment': <class 'pydub.audio_segment.AudioSegment'>, 'Auth': <class 'gluon.tools.Auth'>, 'B': <class 'gluon.html.B'>, 'BEAUTIFY': <class 'gluon.html.BEAUTIFY'>, 'BODY': <class 'gluon.html.BODY'>, 'BR': <class 'gluon.html.BR'>, ...}"
p79
sS'ccode'
p80
S'<code object <module> at 0x112de37b0, file "/Use...ainforest_Rhythm/controllers/default.py", line 4>'
p81
ssS'lnum'
p82
I227
sS'lines'
p83
(dp84
I224
S'            ccode = code'
p85
sI225
S'        else:'
p86
sI226
S'            ccode = compile2(code, layer)'
p87
sI227
S'        exec ccode in environment'
p88
sI228
S'    except HTTP:'
p89
sI229
S'        raise'
p90
sI230
S'    except RestrictedError:'
p91
sI231
S'        # do not encapsulate (obfuscate) the original RestrictedError'
p92
sI222
S'    try:'
p93
sI223
S'        if isinstance(code, types.CodeType):'
p94
ssS'call'
p95
S"(code='# -*- coding: utf-8 -*-\\n# this file is released ...ice()\\n\\n\\n\\nresponse._vars=response._caller(player)\\n', environment={'A': <class 'gluon.html.A'>, 'ANY_OF': <class 'gluon.validators.ANY_OF'>, 'ASSIGNJS': <function ASSIGNJS>, 'AppConfig': <function AppConfig>, 'AudioSegment': <class 'pydub.audio_segment.AudioSegment'>, 'Auth': <class 'gluon.tools.Auth'>, 'B': <class 'gluon.html.B'>, 'BEAUTIFY': <class 'gluon.html.BEAUTIFY'>, 'BODY': <class 'gluon.html.BODY'>, 'BR': <class 'gluon.html.BR'>, ...}, layer='/Users/dorme/Research/SAFE/Web2Py/web2py/applications/Rainforest_Rhythm/controllers/default.py')"
p96
sS'func'
p97
S'restricted'
p98
sa(dp99
g74
S'/Users/dorme/Research/SAFE/Web2Py/web2py/applications/Rainforest_Rhythm/controllers/default.py'
p100
sg76
(dp101
sg82
I366
sg83
(dp102
I355
S'def call():'
p103
sI356
S'\t"""'
p104
sI357
S'\texposes services. for example:'
p105
sI358
S'\thttp://..../[app]/default/call/jsonrpc'
p106
sI359
S'\tdecorate with @services.jsonrpc the functions to expose'
p107
sI360
S'\tsupports xml, json, xmlrpc, jsonrpc, amfrpc, rss, csv'
p108
sI361
S'\t"""'
p109
sI362
S'\treturn service()'
p110
sI363
S''
sI364
S''
ssg95
S'()'
p111
sg97
S'<module>'
p112
sa(dp113
g74
S'/Users/dorme/Research/SAFE/Web2Py/web2py/gluon/globals.py'
p114
sg76
(dp115
S'self'
p116
S'undefined'
p117
sS'f'
S'<function player>'
p118
ssg82
I412
sg83
(dp119
I416
S"        self.generic_patterns = ['*']"
p120
sI407
S"        self.flash = ''            # used by the default view layout"
p121
sI408
S'        self.meta = Storage()      # used by web2py_ajax.html'
p122
sI409
S'        self.menu = []             # used by the default view layout'
p123
sI410
S'        self.files = []            # used by web2py_ajax.html'
p124
sI411
S'        self._vars = None'
p125
sI412
S'        self._caller = lambda f: f()'
p126
sI413
S'        self._view_environment = None'
p127
sI414
S'        self._custom_commit = None'
p128
sI415
S'        self._custom_rollback = None'
p129
ssg95
S'(f=<function player>)'
p130
sg97
S'<lambda>'
p131
sa(dp132
g74
S'/Users/dorme/Research/SAFE/Web2Py/web2py/applications/Rainforest_Rhythm/controllers/default.py'
p133
sg76
(dp134
S'global db'
p135
S'<DAL uri="sqlite://storage.sqlite">'
p136
sS'db.calls.id'
p137
S'<pydal.objects.Field object>'
p138
sS'order'
p139
g117
sS'db.calls'
p140
S'<Table calls (id,audio_id,start_time,end_time,call_note,created_by,created_on)>'
p141
ssg82
I65
sg83
(dp142
I64
S'\t\t\t\t\t\t\t\t  db.taxa.on(db.identifications.taxon_id == db.taxa.id)],'
p143
sI65
S'\t\t\t\t\t\t\torder = db.calls.id)'
p144
sI66
S''
sI67
S'\t# Build the data into a list of call list items with  collapsible list items'
p145
sI68
S'\t# showing any associated ID.'
p146
sI69
S''
sI60
S'\t\t\t\t\t\t\tdb.identifications.current_score,'
p147
sI61
S'\t\t\t\t\t\t\tdb.identifications.n_scores,'
p148
sI62
S'\t\t\t\t\t\t\tdb.taxa.ALL,'
p149
sI63
S'\t\t\t\t\t\t\tleft=[db.identifications.on(db.calls.id == db.identifications.call_id),'
p150
ssg95
S'()'
p151
sg97
S'player'
p152
sa(dp153
g74
S'/Users/dorme/Research/SAFE/Web2Py/web2py/gluon/packages/dal/pydal/objects.py'
p154
sg76
(dp155
S'self.query'
p156
S'<Query (calls.audio_id = 1)>'
p157
sS'adapter.select'
p158
S'<bound method SQLiteAdapter.select of <pydal.adapters.sqlite.SQLiteAdapter object>>'
p159
sS'fields'
p160
S'[<pydal.objects.Field object>, <pydal.objects.Field object>, <pydal.objects.Field object>, <pydal.objects.Field object>, <pydal.objects.Field object>, <pydal.objects.Field object>, <pydal.objects.Field object>, <pydal.objects.Field object>, <pydal.objects.Field object>, <pydal.objects.Field object>, <pydal.objects.Field object>, <pydal.objects.Field object>, <pydal.objects.Field object>, <pydal.objects.Field object>]'
p161
sS'adapter'
p162
S'<pydal.adapters.sqlite.SQLiteAdapter object>'
p163
sS'attributes'
p164
S"{'left': [<pydal.objects.Expression object>, <pydal.objects.Expression object>], 'order': <pydal.objects.Field object>}"
p165
sS'self'
p166
S'<Set (calls.audio_id = 1)>'
p167
ssg82
I2022
sg83
(dp168
I2017
S"                                    attributes.get('join',None),"
p169
sI2018
S"                                    attributes.get('left',None),"
p170
sI2019
S"                                    attributes.get('orderby',None),"
p171
sI2020
S"                                    attributes.get('groupby',None))"
p172
sI2021
S'        fields = adapter.expand_all(fields, tablenames)'
p173
sI2022
S'        return adapter.select(self.query,fields,attributes)'
p174
sI2023
S''
sI2024
S'    def iterselect(self, *fields, **attributes):'
p175
sI2025
S'        adapter = self.db._adapter'
p176
sI2026
S'        tablenames = adapter.tables(self.query,'
p177
ssg95
S"(self=<Set (calls.audio_id = 1)>, *fields=[<pydal.objects.Field object>, <pydal.objects.Field object>, <pydal.objects.Field object>, <pydal.objects.Field object>, <pydal.objects.Field object>, <pydal.objects.Field object>, <pydal.objects.Field object>, <pydal.objects.Field object>, <pydal.objects.Field object>, <pydal.objects.Field object>, <pydal.objects.Field object>, <pydal.objects.Field object>, <pydal.objects.Field object>, <pydal.objects.Field object>], **attributes={'left': [<pydal.objects.Expression object>, <pydal.objects.Expression object>], 'order': <pydal.objects.Field object>})"
p178
sg97
S'select'
p179
sa(dp180
g74
S'/Users/dorme/Research/SAFE/Web2Py/web2py/gluon/packages/dal/pydal/adapters/sqlite.py'
p181
sg76
(dp182
S'fields'
p183
S'[<pydal.objects.Field object>, <pydal.objects.Field object>, <pydal.objects.Field object>, <pydal.objects.Field object>, <pydal.objects.Field object>, <pydal.objects.Field object>, <pydal.objects.Field object>, <pydal.objects.Field object>, <pydal.objects.Field object>, <pydal.objects.Field object>, <pydal.objects.Field object>, <pydal.objects.Field object>, <pydal.objects.Field object>, <pydal.objects.Field object>]'
p184
sS'self'
p185
S'<pydal.adapters.sqlite.SQLiteAdapter object>'
p186
sS').select'
p187
S'<bound method SQLiteAdapter.select of <pydal.adapters.sqlite.SQLiteAdapter object>>'
p188
sS'attributes'
p189
S"{'left': [<pydal.objects.Expression object>, <pydal.objects.Expression object>], 'order': <pydal.objects.Field object>}"
p190
sS'global SQLiteAdapter'
p191
S"<class 'pydal.adapters.sqlite.SQLiteAdapter'>"
p192
sS'query'
p193
S'<Query (calls.audio_id = 1)>'
p194
sS'builtinsuper'
p195
S"<type 'super'>"
p196
ssg82
I124
sg83
(dp197
I128
S"    'Windows':'mod_spatialite.dll',"
p198
sI119
S'        Note that the entire database, rather than one record, is locked'
p199
sI120
S'        (it will be locked eventually anyway by the following UPDATE).'
p200
sI121
S'        """'
p201
sI122
S"        if attributes.get('for_update', False) and not 'cache' in attributes:"
p202
sI123
S"            self.execute('BEGIN IMMEDIATE TRANSACTION;')"
p203
sI124
S'        return super(SQLiteAdapter, self).select(query, fields, attributes)'
p204
sI125
S''
sI126
S''
sI127
S'SPATIALLIBS = {'
p205
ssg95
S"(self=<pydal.adapters.sqlite.SQLiteAdapter object>, query=<Query (calls.audio_id = 1)>, fields=[<pydal.objects.Field object>, <pydal.objects.Field object>, <pydal.objects.Field object>, <pydal.objects.Field object>, <pydal.objects.Field object>, <pydal.objects.Field object>, <pydal.objects.Field object>, <pydal.objects.Field object>, <pydal.objects.Field object>, <pydal.objects.Field object>, <pydal.objects.Field object>, <pydal.objects.Field object>, <pydal.objects.Field object>, <pydal.objects.Field object>], attributes={'left': [<pydal.objects.Expression object>, <pydal.objects.Expression object>], 'order': <pydal.objects.Field object>})"
p206
sg97
g179
sa(dp207
g74
S'/Users/dorme/Research/SAFE/Web2Py/web2py/gluon/packages/dal/pydal/adapters/base.py'
p208
sg76
(dp209
S'self._select'
p210
S'<bound method SQLiteAdapter._select of <pydal.adapters.sqlite.SQLiteAdapter object>>'
p211
sS'fields'
p212
S'[<pydal.objects.Field object>, <pydal.objects.Field object>, <pydal.objects.Field object>, <pydal.objects.Field object>, <pydal.objects.Field object>, <pydal.objects.Field object>, <pydal.objects.Field object>, <pydal.objects.Field object>, <pydal.objects.Field object>, <pydal.objects.Field object>, <pydal.objects.Field object>, <pydal.objects.Field object>, <pydal.objects.Field object>, <pydal.objects.Field object>]'
p213
sS'self'
p214
S'<pydal.adapters.sqlite.SQLiteAdapter object>'
p215
sS'sql'
p216
g117
sS'query'
p217
S'<Query (calls.audio_id = 1)>'
p218
sS'attributes'
p219
S"{'left': [<pydal.objects.Expression object>, <pydal.objects.Expression object>], 'order': <pydal.objects.Field object>}"
p220
ssg82
I1280
sg83
(dp221
I1280
S'        sql = self._select(query, fields, attributes)'
p222
sI1281
S"        cache = attributes.get('cache', None)"
p223
sI1282
S"        if cache and attributes.get('cacheable',False):"
p224
sI1283
S"            del attributes['cache']"
p225
sI1284
S'            (cache_model, time_expire) = cache'
p226
sI1275
S''
sI1276
S'    def select(self, query, fields, attributes):'
p227
sI1277
S'        """'
p228
sI1278
S'        Always returns a Rows object, possibly empty.'
p229
sI1279
S'        """'
p230
ssg95
S"(self=<pydal.adapters.sqlite.SQLiteAdapter object>, query=<Query (calls.audio_id = 1)>, fields=[<pydal.objects.Field object>, <pydal.objects.Field object>, <pydal.objects.Field object>, <pydal.objects.Field object>, <pydal.objects.Field object>, <pydal.objects.Field object>, <pydal.objects.Field object>, <pydal.objects.Field object>, <pydal.objects.Field object>, <pydal.objects.Field object>, <pydal.objects.Field object>, <pydal.objects.Field object>, <pydal.objects.Field object>, <pydal.objects.Field object>], attributes={'left': [<pydal.objects.Expression object>, <pydal.objects.Expression object>], 'order': <pydal.objects.Field object>})"
p231
sg97
g179
sa(dp232
g74
S'/Users/dorme/Research/SAFE/Web2Py/web2py/gluon/packages/dal/pydal/adapters/base.py'
p233
sg76
(dp234
S'builtinSyntaxError'
p235
S"<type 'exceptions.SyntaxError'>"
p236
sS'key'
p237
S"'order'"
p238
ssg82
I1091
sg83
(dp239
I1088
S'    def _select(self, query, fields, attributes):'
p240
sI1089
S'        tables = self.tables'
p241
sI1090
S'        for key in set(attributes.keys())-SELECT_ARGS:'
p242
sI1091
S"            raise SyntaxError('invalid select attribute: %s' % key)"
p243
sI1092
S'        args_get = attributes.get'
p244
sI1093
S'        tablenames = tables(query)'
p245
sI1094
S'        tablenames_for_common_filters = tablenames'
p246
sI1095
S'        for field in fields:'
p247
sI1086
S'        return new_fields'
p248
sI1087
S''
ssg95
S"(self=<pydal.adapters.sqlite.SQLiteAdapter object>, query=<Query (calls.audio_id = 1)>, fields=[<pydal.objects.Field object>, <pydal.objects.Field object>, <pydal.objects.Field object>, <pydal.objects.Field object>, <pydal.objects.Field object>, <pydal.objects.Field object>, <pydal.objects.Field object>, <pydal.objects.Field object>, <pydal.objects.Field object>, <pydal.objects.Field object>, <pydal.objects.Field object>, <pydal.objects.Field object>, <pydal.objects.Field object>, <pydal.objects.Field object>], attributes={'left': [<pydal.objects.Expression object>, <pydal.objects.Expression object>], 'order': <pydal.objects.Field object>})"
p249
sg97
S'_select'
p250
sasS'pyver'
p251
S'Python 2.7.11: /Library/Frameworks/Python.framework/Versions/2.7/Resources/Python.app/Contents/MacOS/Python (prefix: /Library/Frameworks/Python.framework/Versions/2.7)'
p252
sS'session'
p253
g69
(S's\xee\x08\x00\x00<div><table><tr><td style="font-weight:bold;vertical-align:top;">auth</td><td style="vertical-align:top;">:</td><td><div><table><tr><td style="font-weight:bold;vertical-align:top;">expiration</td><td style="vertical-align:top;">:</td><td><div>3600</div></td></tr><tr><td style="font-weight:bold;vertical-align:top;">hmac_key</td><td style="vertical-align:top;">:</td><td><div>a6fe1169-b8c4-4344-8070-f9a85c395837</div></td></tr><tr><td style="font-weight:bold;vertical-align:top;">last_visit</td><td style="vertical-align:top;">:</td><td><div>datetime.datetime(2017, 4, 3, 11, 49, 27, 142891)</div></td></tr><tr><td style="font-weight:bold;vertical-align:top;">remember_me</td><td style="vertical-align:top;">:</td><td><div>False</div></td></tr><tr><td style="font-weight:bold;vertical-align:top;">user</td><td style="vertical-align:top;">:</td><td><div><table><tr><td style="font-weight:bold;vertical-align:top;">email</td><td style="vertical-align:top;">:</td><td><div>d.orme@imperial.ac.uk</div></td></tr><tr><td style="font-weight:bold;vertical-align:top;">first_name</td><td style="vertical-align:top;">:</td><td><div>David</div></td></tr><tr><td style="font-weight:bold;vertical-align:top;">id</td><td style="vertical-align:top;">:</td><td><div>1L</div></td></tr><tr><td style="font-weight:bold;vertical-align:top;">id_skill</td><td style="vertical-align:top;">:</td><td><div>2.0</div></td></tr><tr><td style="font-weight:bold;vertical-align:top;">last_name</td><td style="vertical-align:top;">:</td><td><div>Orme</div></td></tr><tr><td style="font-weight:bold;vertical-align:top;">registration_id</td><td style="vertical-align:top;">:</td><td><div></div></td></tr><tr><td style="font-weight:bold;vertical-align:top;">registration_key</td><td style="vertical-align:top;">:</td><td><div></div></td></tr><tr><td style="font-weight:bold;vertical-align:top;">reset_password_key</td><td style="vertical-align:top;">:</td><td><div></div></td></tr></table></div></td></tr><tr><td style="font-weight:bold;vertical-align:top;">user_groups</td><td style="vertical-align:top;">:</td><td><div><table></table></div></td></tr></table></div></td></tr><tr><td style="font-weight:bold;vertical-align:top;">flash</td><td style="vertical-align:top;">:</td><td><div>None</div></td></tr></table></div>'
tRp254
sS'etype'
p255
S"<type 'exceptions.SyntaxError'>"
p256
sS'date'
p257
S'Mon Apr  3 11:49:27 2017'
p258
sS'response'
p259
g69
(S'so \x00\x00<div><table><tr><td style="font-weight:bold;vertical-align:top;">body</td><td style="vertical-align:top;">:</td><td><div>&lt;cStringIO.StringO object at 0x104de7228&gt;</div></td></tr><tr><td style="font-weight:bold;vertical-align:top;">cookies</td><td style="vertical-align:top;">:</td><td><div><table><tr><td style="font-weight:bold;vertical-align:top;">session_id_rainforest_rhythm</td><td style="vertical-align:top;">:</td><td><div>127.0.0.1-97b81f58-ac39-4ff7-9ffd-5e44f6ff9431<table><tr><td style="font-weight:bold;vertical-align:top;">comment</td><td style="vertical-align:top;">:</td><td><div></div></td></tr><tr><td style="font-weight:bold;vertical-align:top;">domain</td><td style="vertical-align:top;">:</td><td><div></div></td></tr><tr><td style="font-weight:bold;vertical-align:top;">expires</td><td style="vertical-align:top;">:</td><td><div></div></td></tr><tr><td style="font-weight:bold;vertical-align:top;">httponly</td><td style="vertical-align:top;">:</td><td><div></div></td></tr><tr><td style="font-weight:bold;vertical-align:top;">max-age</td><td style="vertical-align:top;">:</td><td><div></div></td></tr><tr><td style="font-weight:bold;vertical-align:top;">path</td><td style="vertical-align:top;">:</td><td><div>/</div></td></tr><tr><td style="font-weight:bold;vertical-align:top;">secure</td><td style="vertical-align:top;">:</td><td><div></div></td></tr><tr><td style="font-weight:bold;vertical-align:top;">version</td><td style="vertical-align:top;">:</td><td><div></div></td></tr></table></div></td></tr></table></div></td></tr><tr><td style="font-weight:bold;vertical-align:top;">delimiters</td><td style="vertical-align:top;">:</td><td><div><table><tr><td><div>{{</div></td></tr><tr><td><div>}}</div></td></tr></table></div></td></tr><tr><td style="font-weight:bold;vertical-align:top;">files</td><td style="vertical-align:top;">:</td><td><div><table></table></div></td></tr><tr><td style="font-weight:bold;vertical-align:top;">flash</td><td style="vertical-align:top;">:</td><td><div></div></td></tr><tr><td style="font-weight:bold;vertical-align:top;">form_label_separator</td><td style="vertical-align:top;">:</td><td><div></div></td></tr><tr><td style="font-weight:bold;vertical-align:top;">formstyle</td><td style="vertical-align:top;">:</td><td><div>bootstrap3_inline</div></td></tr><tr><td style="font-weight:bold;vertical-align:top;">generic_patterns</td><td style="vertical-align:top;">:</td><td><div><table><tr><td><div>*</div></td></tr></table></div></td></tr><tr><td style="font-weight:bold;vertical-align:top;">google_analytics_id</td><td style="vertical-align:top;">:</td><td><div>None</div></td></tr><tr><td style="font-weight:bold;vertical-align:top;">headers</td><td style="vertical-align:top;">:</td><td><div><table><tr><td style="font-weight:bold;vertical-align:top;">X-Powered-By</td><td style="vertical-align:top;">:</td><td><div>web2py</div></td></tr></table></div></td></tr><tr><td style="font-weight:bold;vertical-align:top;">logo</td><td style="vertical-align:top;">:</td><td><div><a><img src="/Rainforest_Rhythm/static/images/logo-rainforest-rhythms-dark.png" /></a></div></td></tr><tr><td style="font-weight:bold;vertical-align:top;">menu</td><td style="vertical-align:top;">:</td><td><div><table><tr><td><div><table><tr><td><div>Home</div></td></tr><tr><td><div>False</div></td></tr><tr><td><div>/Rainforest_Rhythm</div></td></tr><tr><td><div><table></table></div></td></tr></table></div></td></tr><tr><td><div><table><tr><td><div>Recordings</div></td></tr><tr><td><div>False</div></td></tr><tr><td><div>/Rainforest_Rhythm/recordings</div></td></tr><tr><td><div><table></table></div></td></tr></table></div></td></tr><tr><td><div><table><tr><td><div>Calls</div></td></tr><tr><td><div>False</div></td></tr><tr><td><div>/Rainforest_Rhythm/calls</div></td></tr><tr><td><div><table></table></div></td></tr></table></div></td></tr><tr><td><div><table><tr><td><div>Taxa</div></td></tr><tr><td><div>False</div></td></tr><tr><td><div>/Rainforest_Rhythm/taxa</div></td></tr><tr><td><div><table></table></div></td></tr></table></div></td></tr></table></div></td></tr><tr><td style="font-weight:bold;vertical-align:top;">meta</td><td style="vertical-align:top;">:</td><td><div><table><tr><td style="font-weight:bold;vertical-align:top;">author</td><td style="vertical-align:top;">:</td><td><div>Your Name &lt;you@example.com&gt;</div></td></tr><tr><td style="font-weight:bold;vertical-align:top;">description</td><td style="vertical-align:top;">:</td><td><div>a cool new app</div></td></tr><tr><td style="font-weight:bold;vertical-align:top;">generator</td><td style="vertical-align:top;">:</td><td><div>Web2py Web Framework</div></td></tr><tr><td style="font-weight:bold;vertical-align:top;">keywords</td><td style="vertical-align:top;">:</td><td><div>web2py, python, framework</div></td></tr></table></div></td></tr><tr><td style="font-weight:bold;vertical-align:top;">models_to_run</td><td style="vertical-align:top;">:</td><td><div><table><tr><td><div>^\\w+\\.py$</div></td></tr><tr><td><div>^default/\\w+\\.py$</div></td></tr><tr><td><div>^default/player/\\w+\\.py$</div></td></tr></table></div></td></tr><tr><td style="font-weight:bold;vertical-align:top;">postprocessing</td><td style="vertical-align:top;">:</td><td><div><table></table></div></td></tr><tr><td style="font-weight:bold;vertical-align:top;">session_client</td><td style="vertical-align:top;">:</td><td><div>127.0.0.1</div></td></tr><tr><td style="font-weight:bold;vertical-align:top;">session_cookie_compression_level</td><td style="vertical-align:top;">:</td><td><div>None</div></td></tr><tr><td style="font-weight:bold;vertical-align:top;">session_cookie_expires</td><td style="vertical-align:top;">:</td><td><div>None</div></td></tr><tr><td style="font-weight:bold;vertical-align:top;">session_cookie_key</td><td style="vertical-align:top;">:</td><td><div>None</div></td></tr><tr><td style="font-weight:bold;vertical-align:top;">session_data_name</td><td style="vertical-align:top;">:</td><td><div>session_data_rainforest_rhythm</div></td></tr><tr><td style="font-weight:bold;vertical-align:top;">session_file</td><td style="vertical-align:top;">:</td><td><div>&lt;open file &#x27;/Users/dorme/Research/SAFE/Web2Py/web2py/applications/Rainforest_Rhythm/sessions/0e5/01e/127.0.0.1-97b81f58-ac39-4ff7-9ffd-5e44f6ff9431&#x27;, mode &#x27;rb+&#x27; at 0x10ef48f60&gt;</div></td></tr><tr><td style="font-weight:bold;vertical-align:top;">session_filename</td><td style="vertical-align:top;">:</td><td><div>/Users/dorme/Research/SAFE/Web2Py/web2py/applications/Rainforest_Rhythm/sessions/127.0.0.1-97b81f58-ac39-4ff7-9ffd-5e44f6ff9431</div></td></tr><tr><td style="font-weight:bold;vertical-align:top;">session_hash</td><td style="vertical-align:top;">:</td><td><div>e020e25e0db022bf398187fd4983f26d</div></td></tr><tr><td style="font-weight:bold;vertical-align:top;">session_id</td><td style="vertical-align:top;">:</td><td><div>127.0.0.1-97b81f58-ac39-4ff7-9ffd-5e44f6ff9431</div></td></tr><tr><td style="font-weight:bold;vertical-align:top;">session_id_name</td><td style="vertical-align:top;">:</td><td><div>session_id_rainforest_rhythm</div></td></tr><tr><td style="font-weight:bold;vertical-align:top;">session_locked</td><td style="vertical-align:top;">:</td><td><div>True</div></td></tr><tr><td style="font-weight:bold;vertical-align:top;">session_masterapp</td><td style="vertical-align:top;">:</td><td><div>Rainforest_Rhythm</div></td></tr><tr><td style="font-weight:bold;vertical-align:top;">session_new</td><td style="vertical-align:top;">:</td><td><div>False</div></td></tr><tr><td style="font-weight:bold;vertical-align:top;">session_storage_type</td><td style="vertical-align:top;">:</td><td><div>file</div></td></tr><tr><td style="font-weight:bold;vertical-align:top;">status</td><td style="vertical-align:top;">:</td><td><div>200</div></td></tr><tr><td style="font-weight:bold;vertical-align:top;">subtitle</td><td style="vertical-align:top;">:</td><td><div></div></td></tr><tr><td style="font-weight:bold;vertical-align:top;">title</td><td style="vertical-align:top;">:</td><td><div>Rainforest Rhythm</div></td></tr><tr><td style="font-weight:bold;vertical-align:top;">view</td><td style="vertical-align:top;">:</td><td><div>default/player.html</div></td></tr></table></div>'
tRp260
sS'locals'
p261
(dp262
S'tables'
p263
S'<bound method SQLiteAdapter.tables of <pydal.adapters.sqlite.SQLiteAdapter object>>'
p264
sS'fields'
p265
S'[<pydal.objects.Field object>, <pydal.objects.Field object>, <pydal.objects.Field object>, <pydal.objects.Field object>, <pydal.objects.Field object>, <pydal.objects.Field object>, <pydal.objects.Field object>, <pydal.objects.Field object>, <pydal.objects.Field object>, <pydal.objects.Field object>, <pydal.objects.Field object>, <pydal.objects.Field object>, <pydal.objects.Field object>, <pydal.objects.Field object>]'
p266
sS'self'
p267
S'<pydal.adapters.sqlite.SQLiteAdapter object>'
p268
sS'key'
p269
S"'order'"
p270
sS'query'
p271
S'<Query (calls.audio_id = 1)>'
p272
sS'attributes'
p273
S"{'left': [<pydal.objects.Expression object>, <pydal.objects.Expression object>], 'order': <pydal.objects.Field object>}"
p274
sssS'traceback'
p275
S'Traceback (most recent call last):\n  File "/Users/dorme/Research/SAFE/Web2Py/web2py/gluon/restricted.py", line 227, in restricted\n    exec ccode in environment\n  File "/Users/dorme/Research/SAFE/Web2Py/web2py/applications/Rainforest_Rhythm/controllers/default.py", line 366, in <module>\n  File "/Users/dorme/Research/SAFE/Web2Py/web2py/gluon/globals.py", line 412, in <lambda>\n    self._caller = lambda f: f()\n  File "/Users/dorme/Research/SAFE/Web2Py/web2py/applications/Rainforest_Rhythm/controllers/default.py", line 65, in player\n    order = db.calls.id)\n  File "/Users/dorme/Research/SAFE/Web2Py/web2py/gluon/packages/dal/pydal/objects.py", line 2022, in select\n    return adapter.select(self.query,fields,attributes)\n  File "/Users/dorme/Research/SAFE/Web2Py/web2py/gluon/packages/dal/pydal/adapters/sqlite.py", line 124, in select\n    return super(SQLiteAdapter, self).select(query, fields, attributes)\n  File "/Users/dorme/Research/SAFE/Web2Py/web2py/gluon/packages/dal/pydal/adapters/base.py", line 1280, in select\n    sql = self._select(query, fields, attributes)\n  File "/Users/dorme/Research/SAFE/Web2Py/web2py/gluon/packages/dal/pydal/adapters/base.py", line 1091, in _select\n    raise SyntaxError(\'invalid select attribute: %s\' % key)\nSyntaxError: invalid select attribute: order\n'
p276
s.