(dp1
S'output'
p2
S"<type 'exceptions.AttributeError'> "
p3
sS'layer'
p4
S'/Users/dorme/Research/SAFE/Web2Py/web2py/applications/Rainforest_Rhythm/controllers/default.py'
p5
sS'code'
p6
S'# -*- coding: utf-8 -*-\n# this file is released under public domain and you can use without limitations\n\nfrom gluon.serializers import json\nimport itertools\nimport math\nfrom pydub import AudioSegment\nimport os\n\n#########################################################################\n## This is a sample controller\n## - index is the default action of any application\n## - user is required for authentication and authorization\n## - download is for downloading files uploaded in the db (does streaming)\n#########################################################################\n\ndef index():\n\t"""\n\texample action using the internationalization operator T and flash\n\trendered by views/default/index.html or views/generic.html\n\n\tif you need a simple wiki simply replace the two lines below with:\n\treturn auth.wiki()\n\t"""\n\tresponse.flash = T("Hello World")\n\treturn dict(message=T(\'Welcome to web2py!\'))\n\ndef player():\n\t\n\t"""\n\tExposes the wavesurfer player, loading a particular audio file \n\tand the calls associated with it\n\t"""\n\t\n\tif request.vars[\'audio_id\']:\n\t\trecord = db.audio(request.vars[\'audio_id\'])\n\telse:\n\t\trecord = db.audio(1)\n\t\n\tif record.previous_part:\n\t\tbackward_link = A(I(_class=\'glyphicon glyphicon-chevron-left\'),\n\t\t\t\t\t\t  _href=URL(\'default\',\'player\', vars={\'audio_id\': record.previous_part}))\n\telse:\n\t\tbackward_link = I()\n\t\n\tif record.next_part:\n\t\tforward_link = A(I(_class=\'glyphicon glyphicon-chevron-right\'),\n\t\t\t\t\t\t  _href=URL(\'default\',\'player\', vars={\'audio_id\':record.next_part}))\n\telse:\n\t\tforward_link = I()\n\t\n\t# get the calls for this audio...\n\trows = db(db.calls.audio_id == record.id).select()\n\t\n\t# Build the collapsible list items showing each region, region controls,\n\t# and any associated ID.\n\t\n\t\n\t# The general information to display on this page is the call, call info and then\n\t# each id (if any) and the number of votes and weighted average score for each id. \n\t\n\t# The call info is available from the row object, and then I\'ve used the\n\t# DB backend here to get all the identifications for this audio id and preprocess\n\t# the components of the weighting. The SQL is:\n\t#\n\t# select i.call_id, i.id, t.common_name,  count(s.score), \n\t#\t\t sum(s.score * u.id_skill), sum(u.id_skill) \n\t#\tfrom audio a join calls c on a.id == c.audio_id \n\t#\t\tjoin identifications i on c.id == i.call_id \n\t#\t\tjoin taxa t on t.id == i.taxon_id \n\t#\t\tleft outer join scores s on s.identification_id == i.id \n\t#\t\tleft outer join auth_user u on u.id == s.user_id \n\t#\twhere a.id == 1\n\t#\tgroup by i.id;\n\t\n\tthis_audio = db((db.calls.audio_id == record.id) & \n\t\t\t\t\t(db.identifications.call_id == db.calls.id) &\n\t\t\t\t\t(db.identifications.taxon_id == db.taxa.id))\n\t\n\tident_info = this_audio.select(db.identifications.id,\n\t\t\t\t\t\t\t\t   db.identifications.call_id,\n\t\t\t\t\t\t\t\t   db.taxa.ALL,\n\t\t\t\t\t\t\t\t   db.scores.score.count().with_alias(\'count\'), \n\t\t\t\t\t\t\t\t   (db.scores.score * db.auth_user.id_skill).sum().with_alias(\'num\'),\n\t\t\t\t\t\t\t\t   db.auth_user.id_skill.sum().with_alias(\'denom\'),\n\t\t\t\t\t\t   left = [db.scores.on(db.identifications.id == db.scores.identification_id),\n\t\t\t\t\t\t\t\t   db.auth_user.on(db.auth_user.id == db.scores.user_id)],\n\t\t\t\t\t\t   groupby = db.identifications.id,\n\t\t\t\t\t\t   orderby = db.identifications.call_id)\n\t\n\t# build that data into a dictionary of identifications by call_id \n\t# NB: This groupby relies on DB query above ordering by the key!\n\tident_dict = {k: list(g) for k, g in itertools.groupby(ident_info, lambda x: x.identifications.call_id)}\n\t\n\titems = []\n\t\n\t# The structure here is a list-group of the call information, each of which is followed\n\t# by its own nested list group of the identifications, which are collapsible. So, users\n\t# will always see a list of calls, but the ids are controllable.\n\t\n\tfor r in rows:\n\t\t# call header row, showing play and link to call page.\n\t\tregion_info = LI(SPAN(_class="glyphicon glyphicon-lg glyphicon-play-circle", _id=\'play_call_\' + str(r.id)),\n\t\t\t\t\t\tXML(\'&nbsp\'),\n\t\t\t\t\t\t# B(\'Call \' + str(r.id) + \': \'), \n\t\t\t\t\t\tI(\'{} -- {}: {} seconds\'.format(r.start_time,\n\t\t\t\t\t\t\t\t\t\t\t\t\t\t r.end_time,\n\t\t\t\t\t\t\t\t\t\t\t\t\t\t str(round(r.end_time - r.start_time, 2)))),\n\t\t\t\t\t\tA(SPAN(_class="glyphicon glyphicon-lg glyphicon-info-sign pull-right"), \n\t\t\t\t\t\t\t\t_href=URL(\'calls\', vars={\'call_id\': r.id})),\n\t\t\t\t\t\t   _class=\'list-group-item call_info\',\n\t\t\t\t\t\t   _onmouseover=\'highlight_call(this)\',\n\t\t\t\t\t\t   _onmouseout=\'dehighlight_call(this)\',\n\t\t\t\t\t\t   _id = \'highlight_\' + str(r.id))\n\t\titems.append(region_info)\n\t\t\n\t\t#  compile identification information for this call\n\t\tcalls = []\n\t\tif r.id in ident_dict:\n\t\t\tfor c in ident_dict[r.id]:\n\t\t\t\tcall_info =\t LI(DIV(DIV(c.taxa.common_name, \' (\',\n\t\t\t\t\t\t\t\t\t\tI(c.taxa.genus, \' \', c.taxa.species), \')\',\n\t\t\t\t\t\t\t\t\t\t_class=\'col-sm-6\'),\n\t\t\t\t\t\t\t\t\t_votebar(0,2),\n\t\t\t\t\t\t\t\t\tDIV(SPAN(c.count, _class="badge"), _class="col-sm-2"),\n\t\t\t\t\t\t\t\t\t_class=\'row\'),\n\t\t\t\t\t\t\t\t_class=\'list-group-item small call_id\')\n\t\t\t\tcalls.append(call_info)\n\t\telse:\n\t\t\tcalls.append(LI("No identification proposed", _class=\'list-group-item small call_id\'))\n\t\t\n\t\t# append the calls as a collapiblelist group\n\t\titems.append(DIV(calls, _class=\'list-group collapse\', _id=\'call\' + str(r.id)))\n\t\n\tlist_group = DIV(*items, _class="panel list-group")\n\t\n\t\n\t# ... update names to match the wavesurfer_js region properties\n\t# - start is a reserved word in the web2py framework so can\'t be used directly\n\t# - add an attribute to identify new regions from existing ones.\n\tfor r in rows:\n\t\tr.update({\'start\': r[\'start_time\'], \'end\': r[\'end_time\'], \'attributes\':{\'type\': \'fixed\'}})\n\t\n\t# serialise as JSON to pass to the javascript that loads the regions on the wavesurfer\n\trows = json(rows)\n\t\n\t# pass summary data of identifications to allow javascript \n\t# to load ids for a selected call on the client side\n\treturn dict(record=record, backward_link=backward_link, list_group=list_group,\n\t\t\t\tforward_link=forward_link, rows=rows)\n\ndef _seconds_to_time(val):\n\t\n\tm = int(val // 60)\n\ts = int(val % 60)\n\tts = int(val % 1 * 10)\n\t\n\treturn \'{}:{}.{}\'.format(m,s,ts)\n\n@auth.requires_login()\ndef create_call():\n\t\n\taudio_id = request.vars[\'audio_id\']\n\tsource_file = db.audio[audio_id].filename\n\tsource_path = os.path.join(request.folder, \'static\', \'audio\', source_file)\n\tstart = float(request.vars[\'start\'])\n\tend = float(request.vars[\'end\'])\n\t\n\tcall_id = _extract_call_and_add_to_db(source_path, audio_id, start, end, auth.user.id)\n\t\n\treturn call_id \n\n@auth.requires_login()\ndef my_vote():\n\t\n\t"""\n\tInserts a user vote for a particular ID, note that the system keeps\n\ta record of previous votes, rather than just updating them, so the \n\tprevious votes are flagged as replaced. Then calculates and updates \n\tthe weighted mean for the identification\n\t"""\n\t\n\t# get the variables from the call\n\tid_id = request.vars[\'id\']\n\tscore = request.vars[\'score\']\n\t\n\t# get any existing scores by this user for this id \n\t# and update them as replaced\n\tdb((db.scores.user_id == auth.user_id) &\n\t   (db.scores.identification_id == id_id)).update(replaced=True)\n\t\n\t# put in the new values\n\tdb.scores.insert(identification_id=id_id, user_id=auth.user_id,\n\t\t\t\t\t score=score, datetime=datetime.datetime.now())\n\t\n\t# update the identifications with the new score\n\tthese_scores = db((db.scores.identification_id == id_id) &\n\t\t\t\t\t  (db.auth_user.id == db.scores.user_id) &\n\t\t\t\t\t  (db.scores.replaced == False))\n\n\t# get the scores and skills associated with them\n\t# and calculate their weighted meanand the number of scores\n\tid_score  = these_scores.select(((db.auth_user.id_skill * db.scores.score).sum() / \n\t\t\t\t\t\t\t\t\t (db.auth_user.id_skill).sum()).with_alias(\'wt_mean\'),\n\t\t\t\t\t\t\t\t\tdb.scores.score.count().with_alias(\'n_scores\')).first()\n\t\n\tdb(db.identifications.id == id_id).update(current_score=id_score[\'wt_mean\'],\n\t\t\t\t\t\t\t\t\t\t\t  n_scores=id_score[\'n_scores\'])\n\t\n\treturn dict(id_id=id_id, id_score=id_score[\'wt_mean\'])\n\ndef calls():\n\t\n\t# retrieve the call id and audio\n\tif request.vars[\'call_id\']:\n\t\n\t\trecord = db.calls(request.vars[\'call_id\'])\n\t\taudio = db.audio(record.audio_id)\n\t\n\telse:\n\t\t# TODO - where to redirect to\n\t\tredirect(\'index\')\n\t\n\t# get the identifications for this call\n\tidents_query = db((db.identifications.call_id == record.id) &\n\t\t\t\t\t  (db.identifications.taxon_id == db.taxa.id) &\n\t\t\t\t\t  (db.identifications.user_id == db.auth_user.id))\n\t\n\tident_rows = idents_query.select(db.identifications.id,\n\t\t\t\t\t\t\t\t\t db.identifications.created_on,\n\t\t\t\t\t\t\t\t\t db.identifications.current_score,\n\t\t\t\t\t\t\t\t\t db.identifications.n_scores,\n\t\t\t\t\t\t\t\t\t db.taxa.common_name,\n\t\t\t\t\t\t\t\t\t db.taxa.genus,\n\t\t\t\t\t\t\t\t\t db.taxa.species,\n\t\t\t\t\t\t\t\t\t db.taxa.subspecies,\n\t\t\t\t\t\t\t\t\t db.taxa.thumbnail,\n\t\t\t\t\t\t\t\t\t db.auth_user.first_name,\n\t\t\t\t\t\t\t\t\t db.auth_user.last_name)\n\t\n\t# get the scores for this call\n\tscores_query = db((db.identifications.call_id == record.id) &\n\t\t\t\t\t  (db.scores.replaced == False))\n\t\n\tscores_rows = scores_query.select(db.identifications.id,\n\t\t\t\t\t\t\t\t\t  db.scores.score, \n\t\t\t\t\t\t\t\t\t  db.auth_user.first_name,\n\t\t\t\t\t\t\t\t\t  db.auth_user.last_name,\n\t\t\t\t\t\t\t\t\t  left = [db.scores.on(db.identifications.id == db.scores.identification_id),\n\t\t\t\t\t\t\t\t\t\t\t  db.auth_user.on(db.auth_user.id == db.scores.user_id)],\n\t\t\t\t\t\t   orderby = db.identifications.id)\n\t\n\t# build that data into a dictionary of scores by ident_id \n\t# NB: This groupby relies on DB query above ordering by the key!\n\tscores_rows = {k: list(g) for k, g in itertools.groupby(scores_rows, lambda x: x.identifications.id)}\n\t\n\t# get a list of arguments to set data- options, can\'t set\n\t# arguments with a hyphen in the function\n\tmodal_data_args = {\'_data-toggle\':"modal",\'_data-target\':"#myModal"}\n\t\n\tscore_modals = []\n\titems = []\n\tfor r in ident_rows:\n\t\t# Identification block showing species, proposer and controls\n\t\tident_info = LI(DIV(DIV(IMG(_src=URL(\'static\', \'taxa\', args=r.taxa.thumbnail),\n\t\t\t\t\t\t\t\t\t_width="50", _class="media-object"),\n\t\t\t\t\t\t\t\t_class="media-left"),\n\t\t\t\t\t\t\tDIV(DIV(H5(XML(\'{} (<i>{} {}</i>)\'.format(r.taxa.common_name,\n\t\t\t\t\t\t\t\t\t\t   r.taxa.genus,  r.taxa.species)),\n\t\t\t\t\t\t\t\t\t\t   _class=\'media-heading\'),\n\t\t\t\t\t\t\t\t\t\tTAG.small(\' Proposed by {} {} on {}.\'.format(r.auth_user.first_name, \n\t\t\t\t\t\t\t\t\t\t\t\t  r.auth_user.last_name, r.identifications.created_on)),\n\t\t\t\t\t\t\t\t\t_class=\'col-sm-6\'),\n\t\t\t\t\t\t\t\tDIV(_votebar(r.identifications.current_score, \n\t\t\t\t\t\t\t\t\t\t\t r.identifications.n_scores,\n\t\t\t\t\t\t\t\t\t\t\t r.id),\n\t\t\t\t\t\t\t\t\t_your_vote(0, r.identifications.id),\n\t\t\t\t\t\t\t\t\t_class=\'col-sm-6\'),\n\t\t\t\t\t\t\t\t_class=\'media-body\'),\n\t\t\t\t\t\t\t_class="media"),\n\t\t\t\t\t\t_class=\'list-group-item call_info\')\n\t\t\n\t\t\n\t\t#\t\t\t\t TAG.button(SPAN(_class=\'glyphicon glyphicon-eye-open\'), _type="button", _class="btn btn-primary btn-sm",\n\t\t#\t\t\t\t\t\t\t**modal_data_args),\n\t\t\n\t\t# compile user votes if any\n\t\tif r.identifications.id in scores_rows:\n\t\t\tscore_tab = []\n\t\t\tfor c in scores_rows[r.identifications.id]:\n\t\t\t\tscore_tab.append(TR(TD(c.auth_user.first_name + \' \' + c.auth_user.last_name),\n\t\t\t\t\t\t\t\t\tTD(score_icons[c.scores.score])))\n\t\t\t\n\t\t\tscore_tab = TABLE(*score_tab, _class="table table_striped")\n\t\t\tident_info = CAT(ident_info, score_tab)\n\t\t\t\n\t\t\t\n\t\titems.append(DIV(ident_info, _id=\'ident\' + str(r.identifications.id)))\n\t\t\n\t\t# create modal windows for each identification to show the scores\n\t\thyphen_tags = {"_data-dismiss":"modal"}\n\t\tmodal_str = DIV(DIV(DIV(DIV(B("Ratings", _class="modal-title"),\n\t\t\t\t\t\t\t\t\tTAG.button(SPAN(_class=\'glyphicon glyphicon-remove\'),\n\t\t\t\t\t\t\t\t\t\t\t\t_type="button", _class="btn btn-link", **hyphen_tags),\n\t\t\t\t\t\t\t\t\t_class="modal-header"),\n\t\t\t\t\t\t\t\tDIV("Some text",\n\t\t\t\t\t\t\t\t\t_class="modal-body"),\n\t\t\t\t\t\t\t\t# DIV(_class="modal-footer"),\n\t\t\t\t\t\t\t\t_class="modal-content"),\n\t\t\t\t\t\t\t_class="modal-dialog"),\n\t\t\t\t\t\t_id="myModal", _class="modal fade", _role="dialog")\n\t\t\n\t\tmodal_str.element(\'.modal-body\')[0] = score_tab\n\t\n\tlist_group = DIV(*items, _class="panel list-group")\n\t\n\treturn dict(record=record, audio=audio, list_group=list_group) #, modal_str=modal_str)\n\ndef recordings():\n\t\n\tlinks = [dict(header = \'\', \n\t\t\t\t  body = lambda row: A(SPAN(\'\',_class="glyphicon glyphicon-eye-open"),\n\t\t\t\t\t\t\t\t\t   XML(\'&nbsp;\'),\n\t\t\t\t\t\t\t\t\t   SPAN(\'View\', _class="buttontext button"),\n\t\t\t\t\t\t\t\t\t   _class="btn btn-default", \n\t\t\t\t\t\t\t\t\t   _href=URL("player", vars={\'audio_id\':row.id}),\n\t\t\t\t\t\t\t\t\t   _style=\'padding: 3px 5px 3px 5px;\'))]\t \n\t\n\tform = SQLFORM.grid(db.audio,\n\t\t\t\t\t\tfields=[db.audio.filename, db.audio.start_datetime, db.audio.length_seconds],\n\t\t\t\t\t\tcsv=False,\n\t\t\t\t\t\tcreate=False,\n\t\t\t\t\t\teditable=False,\n\t\t\t\t\t\tdetails=False,\n\t\t\t\t\t\tlinks=links)\n\t\n\treturn dict(form=form)\n\ndef taxa():\n\t\n\t# Create only applies to logged in users\n\tform = SQLFORM.grid(db.taxa,\n\t\t\t\t\t\tfields = [db.taxa.common_name, db.taxa.genus, \n\t\t\t\t\t\t\t\t  db.taxa.species, db.taxa.subspecies],\n\t\t\t\t\t\tcsv=False,\n\t\t\t\t\t\tcreate=True,\n\t\t\t\t\t\teditable=False,\n\t\t\t\t\t\tdetails=True,\n\t\t\t\t\t\tdeletable=False)\n\t\n\treturn dict(form=form)\n\ndef taxon():\n\t\n\tif request.vars[\'taxon_id\']:\n\t\trecord = db.taxa(request.vars[\'taxon_id\'])\n\telse:\n\t\trecord = db.taxa(1)\n\t\n\t\n\tform = SQLFORM(db.taxa, record=record, readonly=True)\n\t\n\treturn dict(form=form)\n\n\ndef user():\n\t"""\n\texposes:\n\thttp://..../[app]/default/user/login\n\thttp://..../[app]/default/user/logout\n\thttp://..../[app]/default/user/register\n\thttp://..../[app]/default/user/profile\n\thttp://..../[app]/default/user/retrieve_password\n\thttp://..../[app]/default/user/change_password\n\thttp://..../[app]/default/user/bulk_register\n\tuse @auth.requires_login()\n\t\t@auth.requires_membership(\'group name\')\n\t\t@auth.requires_permission(\'read\',\'table name\',record_id)\n\tto decorate functions that need access control\n\talso notice there is http://..../[app]/appadmin/manage/auth to allow administrator to manage users\n\t"""\n\treturn dict(form=auth())\n\n\n@cache.action()\ndef download():\n\t"""\n\tallows downloading of uploaded files\n\thttp://..../[app]/default/download/[filename]\n\t"""\n\treturn response.download(request, db)\n\n\ndef call():\n\t"""\n\texposes services. for example:\n\thttp://..../[app]/default/call/jsonrpc\n\tdecorate with @services.jsonrpc the functions to expose\n\tsupports xml, json, xmlrpc, jsonrpc, amfrpc, rss, csv\n\t"""\n\treturn service()\n\n\n\nresponse._vars=response._caller(calls)\n'
p7
sS'snapshot'
p8
(dp9
S'exception'
p10
(dp11
S'__hash__'
p12
S"<method-wrapper '__hash__' of exceptions.AttributeError object>"
p13
sS'__setattr__'
p14
S"<method-wrapper '__setattr__' of exceptions.AttributeError object>"
p15
sS'__reduce_ex__'
p16
S'<built-in method __reduce_ex__ of exceptions.AttributeError object>'
p17
sS'__getslice__'
p18
S"<method-wrapper '__getslice__' of exceptions.AttributeError object>"
p19
sS'__getitem__'
p20
S"<method-wrapper '__getitem__' of exceptions.AttributeError object>"
p21
sS'__setstate__'
p22
S'<built-in method __setstate__ of exceptions.AttributeError object>'
p23
sS'args'
p24
S'()'
p25
sS'__reduce__'
p26
S'<built-in method __reduce__ of exceptions.AttributeError object>'
p27
sS'__str__'
p28
S"<method-wrapper '__str__' of exceptions.AttributeError object>"
p29
sS'__format__'
p30
S'<built-in method __format__ of exceptions.AttributeError object>'
p31
sS'__getattribute__'
p32
S"<method-wrapper '__getattribute__' of exceptions.AttributeError object>"
p33
sS'__class__'
p34
S"<type 'exceptions.AttributeError'>"
p35
sS'__unicode__'
p36
S'<built-in method __unicode__ of exceptions.AttributeError object>'
p37
sS'__delattr__'
p38
S"<method-wrapper '__delattr__' of exceptions.AttributeError object>"
p39
sS'__subclasshook__'
p40
S'<built-in method __subclasshook__ of type object>'
p41
sS'__repr__'
p42
S"<method-wrapper '__repr__' of exceptions.AttributeError object>"
p43
sS'__dict__'
p44
S'{}'
p45
sS'__sizeof__'
p46
S'<built-in method __sizeof__ of exceptions.AttributeError object>'
p47
sS'__doc__'
p48
S"'Attribute not found.'"
p49
sS'__init__'
p50
S"<method-wrapper '__init__' of exceptions.AttributeError object>"
p51
sS'__new__'
p52
S'<built-in method __new__ of type object>'
p53
ssS'evalue'
p54
S''
sS'request'
p55
cgluon.html
XML_unpickle
p56
(S's\xbbW\x00\x00<div><table><tr><td style="font-weight:bold;vertical-align:top;">ajax</td><td style="vertical-align:top;">:</td><td><div>False</div></td></tr><tr><td style="font-weight:bold;vertical-align:top;">application</td><td style="vertical-align:top;">:</td><td><div>Rainforest_Rhythm</div></td></tr><tr><td style="font-weight:bold;vertical-align:top;">args</td><td style="vertical-align:top;">:</td><td><div><table></table></div></td></tr><tr><td style="font-weight:bold;vertical-align:top;">cid</td><td style="vertical-align:top;">:</td><td><div>None</div></td></tr><tr><td style="font-weight:bold;vertical-align:top;">client</td><td style="vertical-align:top;">:</td><td><div>127.0.0.1</div></td></tr><tr><td style="font-weight:bold;vertical-align:top;">controller</td><td style="vertical-align:top;">:</td><td><div>default</div></td></tr><tr><td style="font-weight:bold;vertical-align:top;">cookies</td><td style="vertical-align:top;">:</td><td><div><table><tr><td style="font-weight:bold;vertical-align:top;">session_id_admin</td><td style="vertical-align:top;">:</td><td><div>127.0.0.1-55d678d5-b7f5-478d-9828-d8b03a708e5a<table><tr><td style="font-weight:bold;vertical-align:top;">comment</td><td style="vertical-align:top;">:</td><td><div></div></td></tr><tr><td style="font-weight:bold;vertical-align:top;">domain</td><td style="vertical-align:top;">:</td><td><div></div></td></tr><tr><td style="font-weight:bold;vertical-align:top;">expires</td><td style="vertical-align:top;">:</td><td><div></div></td></tr><tr><td style="font-weight:bold;vertical-align:top;">httponly</td><td style="vertical-align:top;">:</td><td><div></div></td></tr><tr><td style="font-weight:bold;vertical-align:top;">max-age</td><td style="vertical-align:top;">:</td><td><div></div></td></tr><tr><td style="font-weight:bold;vertical-align:top;">path</td><td style="vertical-align:top;">:</td><td><div></div></td></tr><tr><td style="font-weight:bold;vertical-align:top;">secure</td><td style="vertical-align:top;">:</td><td><div></div></td></tr><tr><td style="font-weight:bold;vertical-align:top;">version</td><td style="vertical-align:top;">:</td><td><div></div></td></tr></table></div></td></tr><tr><td style="font-weight:bold;vertical-align:top;">session_id_rainforest_rhythm</td><td style="vertical-align:top;">:</td><td><div>127.0.0.1-722ca32f-84c0-4726-b89a-c0503ea2de78<table><tr><td style="font-weight:bold;vertical-align:top;">comment</td><td style="vertical-align:top;">:</td><td><div></div></td></tr><tr><td style="font-weight:bold;vertical-align:top;">domain</td><td style="vertical-align:top;">:</td><td><div></div></td></tr><tr><td style="font-weight:bold;vertical-align:top;">expires</td><td style="vertical-align:top;">:</td><td><div></div></td></tr><tr><td style="font-weight:bold;vertical-align:top;">httponly</td><td style="vertical-align:top;">:</td><td><div></div></td></tr><tr><td style="font-weight:bold;vertical-align:top;">max-age</td><td style="vertical-align:top;">:</td><td><div></div></td></tr><tr><td style="font-weight:bold;vertical-align:top;">path</td><td style="vertical-align:top;">:</td><td><div></div></td></tr><tr><td style="font-weight:bold;vertical-align:top;">secure</td><td style="vertical-align:top;">:</td><td><div></div></td></tr><tr><td style="font-weight:bold;vertical-align:top;">version</td><td style="vertical-align:top;">:</td><td><div></div></td></tr></table></div></td></tr></table></div></td></tr><tr><td style="font-weight:bold;vertical-align:top;">env</td><td style="vertical-align:top;">:</td><td><div><table><tr><td style="font-weight:bold;vertical-align:top;">HTTP_ACCEPT</td><td style="vertical-align:top;">:</td><td><div>text/html,application/xhtml+xml,application/xml;q=0.9,image/webp,*/*;q=0.8</div></td></tr><tr><td style="font-weight:bold;vertical-align:top;">HTTP_ACCEPT_ENCODING</td><td style="vertical-align:top;">:</td><td><div>gzip, deflate, sdch, br</div></td></tr><tr><td style="font-weight:bold;vertical-align:top;">HTTP_ACCEPT_LANGUAGE</td><td style="vertical-align:top;">:</td><td><div>en-US,en;q=0.8</div></td></tr><tr><td style="font-weight:bold;vertical-align:top;">HTTP_CACHE_CONTROL</td><td style="vertical-align:top;">:</td><td><div>max-age=0</div></td></tr><tr><td style="font-weight:bold;vertical-align:top;">HTTP_CONNECTION</td><td style="vertical-align:top;">:</td><td><div>keep-alive</div></td></tr><tr><td style="font-weight:bold;vertical-align:top;">HTTP_COOKIE</td><td style="vertical-align:top;">:</td><td><div>session_id_rainforest_rhythm=127.0.0.1-722ca32f-84c0-4726-b89a-c0503ea2de78; session_id_admin=127.0.0.1-55d678d5-b7f5-478d-9828-d8b03a708e5a</div></td></tr><tr><td style="font-weight:bold;vertical-align:top;">HTTP_HOST</td><td style="vertical-align:top;">:</td><td><div>127.0.0.1:8000</div></td></tr><tr><td style="font-weight:bold;vertical-align:top;">HTTP_UPGRADE_INSECURE_REQUESTS</td><td style="vertical-align:top;">:</td><td><div>1</div></td></tr><tr><td style="font-weight:bold;vertical-align:top;">HTTP_USER_AGENT</td><td style="vertical-align:top;">:</td><td><div>Mozilla/5.0 (Macintosh; Intel Mac OS X 10_10_5) AppleWebKit/537.36 (KHTML, like Gecko) Chrome/56.0.2924.87 Safari/537.36</div></td></tr><tr><td style="font-weight:bold;vertical-align:top;">PATH_INFO</td><td style="vertical-align:top;">:</td><td><div>/Rainforest_Rhythm/calls</div></td></tr><tr><td style="font-weight:bold;vertical-align:top;">QUERY_STRING</td><td style="vertical-align:top;">:</td><td><div>call_id=1</div></td></tr><tr><td style="font-weight:bold;vertical-align:top;">REMOTE_ADDR</td><td style="vertical-align:top;">:</td><td><div>127.0.0.1</div></td></tr><tr><td style="font-weight:bold;vertical-align:top;">REMOTE_PORT</td><td style="vertical-align:top;">:</td><td><div>64666</div></td></tr><tr><td style="font-weight:bold;vertical-align:top;">REQUEST_METHOD</td><td style="vertical-align:top;">:</td><td><div>GET</div></td></tr><tr><td style="font-weight:bold;vertical-align:top;">SCRIPT_NAME</td><td style="vertical-align:top;">:</td><td><div></div></td></tr><tr><td style="font-weight:bold;vertical-align:top;">SERVER_NAME</td><td style="vertical-align:top;">:</td><td><div>lb-dormelap.sp.ic.ac.uk</div></td></tr><tr><td style="font-weight:bold;vertical-align:top;">SERVER_PORT</td><td style="vertical-align:top;">:</td><td><div>8000</div></td></tr><tr><td style="font-weight:bold;vertical-align:top;">SERVER_PROTOCOL</td><td style="vertical-align:top;">:</td><td><div>HTTP/1.1</div></td></tr><tr><td style="font-weight:bold;vertical-align:top;">SERVER_SOFTWARE</td><td style="vertical-align:top;">:</td><td><div>Rocket 1.2.6</div></td></tr><tr><td style="font-weight:bold;vertical-align:top;">app_folders</td><td style="vertical-align:top;">:</td><td><div>set([&#x27;/Users/dorme/Research/SAFE/Web2Py/web2py/applications/admin/&#x27;, &#x27;/Users/dorme/Research/SAFE/Web2Py/web2py/applications/Rainforest_Rhythm/&#x27;, &#x27;/Users/dorme/Research/SAFE/Web2Py/web2py/applications/SAFE_web/&#x27;])</div></td></tr><tr><td style="font-weight:bold;vertical-align:top;">applications_parent</td><td style="vertical-align:top;">:</td><td><div>/Users/dorme/Research/SAFE/Web2Py/web2py</div></td></tr><tr><td style="font-weight:bold;vertical-align:top;">cmd_args</td><td style="vertical-align:top;">:</td><td><div><table></table></div></td></tr><tr><td style="font-weight:bold;vertical-align:top;">cmd_options</td><td style="vertical-align:top;">:</td><td><div>&lt;Values at 0x104c00200: {&#x27;verbose&#x27;: False, &#x27;ip&#x27;: &#x27;127.0.0.1&#x27;, &#x27;debuglevel&#x27;: 30, &#x27;with_scheduler&#x27;: False, &#x27;ips&#x27;: [&#x27;129.31.3.3&#x27;], &#x27;shutdown_timeout&#x27;: 5, &#x27;taskbar&#x27;: False, &#x27;with_coverage&#x27;: False, &#x27;scheduler_groups&#x27;: None, &#x27;port&#x27;: 8000, &#x27;maxthreads&#x27;: None, &#x27;softcron&#x27;: False, &#x27;server_name&#x27;: &#x27;lb-dormelap.sp.ic.ac.uk&#x27;, &#x27;bpython&#x27;: False, &#x27;nogui&#x27;: False, &#x27;pid_filename&#x27;: &#x27;httpserver.pid&#x27;, &#x27;print_errors&#x27;: False, &#x27;extcron&#x27;: False, &#x27;runcron&#x27;: False, &#x27;run_system_tests&#x27;: False, &#x27;test&#x27;: None, &#x27;folder&#x27;: &#x27;/Users/dorme/Research/SAFE/Web2Py/web2py&#x27;, &#x27;config&#x27;: &#x27;&#x27;, &#x27;minthreads&#x27;: None, &#x27;shell&#x27;: None, &#x27;run&#x27;: &#x27;&#x27;, &#x27;log_filename&#x27;: &#x27;httpserver.log&#x27;, &#x27;profiler_dir&#x27;: None, &#x27;args&#x27;: [&#x27;&#x27;], &#x27;socket_timeout&#x27;: 5, &#x27;ssl_ca_certificate&#x27;: None, &#x27;scheduler&#x27;: None, &#x27;interfaces&#x27;: None, &#x27;ssl_private_key&#x27;: &#x27;&#x27;, &#x27;gae&#x27;: None, &#x27;password&#x27;: &#x27;&lt;ask&gt;&#x27;, &#x27;request_queue_size&#x27;: 5, &#x27;ssl_certificate&#x27;: &#x27;&#x27;, &#x27;cronjob&#x27;: False, &#x27;numthreads&#x27;: None, &#x27;quiet&#x27;: False, &#x27;import_models&#x27;: False, &#x27;timeout&#x27;: 10, &#x27;plain&#x27;: False, &#x27;nobanner&#x27;: False}&gt;</div></td></tr><tr><td style="font-weight:bold;vertical-align:top;">db_sessions</td><td style="vertical-align:top;">:</td><td><div>set([])</div></td></tr><tr><td style="font-weight:bold;vertical-align:top;">debugging</td><td style="vertical-align:top;">:</td><td><div>False</div></td></tr><tr><td style="font-weight:bold;vertical-align:top;">gluon_parent</td><td style="vertical-align:top;">:</td><td><div>/Users/dorme/Research/SAFE/Web2Py/web2py</div></td></tr><tr><td style="font-weight:bold;vertical-align:top;">http_accept</td><td style="vertical-align:top;">:</td><td><div>text/html,application/xhtml+xml,application/xml;q=0.9,image/webp,*/*;q=0.8</div></td></tr><tr><td style="font-weight:bold;vertical-align:top;">http_accept_encoding</td><td style="vertical-align:top;">:</td><td><div>gzip, deflate, sdch, br</div></td></tr><tr><td style="font-weight:bold;vertical-align:top;">http_accept_language</td><td style="vertical-align:top;">:</td><td><div>en-US,en;q=0.8</div></td></tr><tr><td style="font-weight:bold;vertical-align:top;">http_cache_control</td><td style="vertical-align:top;">:</td><td><div>max-age=0</div></td></tr><tr><td style="font-weight:bold;vertical-align:top;">http_connection</td><td style="vertical-align:top;">:</td><td><div>keep-alive</div></td></tr><tr><td style="font-weight:bold;vertical-align:top;">http_cookie</td><td style="vertical-align:top;">:</td><td><div>session_id_rainforest_rhythm=127.0.0.1-722ca32f-84c0-4726-b89a-c0503ea2de78; session_id_admin=127.0.0.1-55d678d5-b7f5-478d-9828-d8b03a708e5a</div></td></tr><tr><td style="font-weight:bold;vertical-align:top;">http_host</td><td style="vertical-align:top;">:</td><td><div>127.0.0.1:8000</div></td></tr><tr><td style="font-weight:bold;vertical-align:top;">http_upgrade_insecure_requests</td><td style="vertical-align:top;">:</td><td><div>1</div></td></tr><tr><td style="font-weight:bold;vertical-align:top;">http_user_agent</td><td style="vertical-align:top;">:</td><td><div>Mozilla/5.0 (Macintosh; Intel Mac OS X 10_10_5) AppleWebKit/537.36 (KHTML, like Gecko) Chrome/56.0.2924.87 Safari/537.36</div></td></tr><tr><td style="font-weight:bold;vertical-align:top;">is_jython</td><td style="vertical-align:top;">:</td><td><div>False</div></td></tr><tr><td style="font-weight:bold;vertical-align:top;">is_pypy</td><td style="vertical-align:top;">:</td><td><div>False</div></td></tr><tr><td style="font-weight:bold;vertical-align:top;">is_source</td><td style="vertical-align:top;">:</td><td><div>True</div></td></tr><tr><td style="font-weight:bold;vertical-align:top;">local_hosts</td><td style="vertical-align:top;">:</td><td><div><table><tr><td><div>129.31.3.3</div></td></tr><tr><td><div>::1</div></td></tr><tr><td><div>::ffff:127.0.0.1</div></td></tr><tr><td><div>127.0.0.1</div></td></tr><tr><td><div>lb-dormelap.sp.ic.ac.uk</div></td></tr></table></div></td></tr><tr><td style="font-weight:bold;vertical-align:top;">path_info</td><td style="vertical-align:top;">:</td><td><div>/Rainforest_Rhythm/calls</div></td></tr><tr><td style="font-weight:bold;vertical-align:top;">query_string</td><td style="vertical-align:top;">:</td><td><div>call_id=1</div></td></tr><tr><td style="font-weight:bold;vertical-align:top;">remote_addr</td><td style="vertical-align:top;">:</td><td><div>127.0.0.1</div></td></tr><tr><td style="font-weight:bold;vertical-align:top;">remote_port</td><td style="vertical-align:top;">:</td><td><div>64666</div></td></tr><tr><td style="font-weight:bold;vertical-align:top;">request_method</td><td style="vertical-align:top;">:</td><td><div>GET</div></td></tr><tr><td style="font-weight:bold;vertical-align:top;">request_uri</td><td style="vertical-align:top;">:</td><td><div>/Rainforest_Rhythm/default/calls?call_id=1</div></td></tr><tr><td style="font-weight:bold;vertical-align:top;">script_name</td><td style="vertical-align:top;">:</td><td><div></div></td></tr><tr><td style="font-weight:bold;vertical-align:top;">server_name</td><td style="vertical-align:top;">:</td><td><div>lb-dormelap.sp.ic.ac.uk</div></td></tr><tr><td style="font-weight:bold;vertical-align:top;">server_port</td><td style="vertical-align:top;">:</td><td><div>8000</div></td></tr><tr><td style="font-weight:bold;vertical-align:top;">server_protocol</td><td style="vertical-align:top;">:</td><td><div>HTTP/1.1</div></td></tr><tr><td style="font-weight:bold;vertical-align:top;">server_software</td><td style="vertical-align:top;">:</td><td><div>Rocket 1.2.6</div></td></tr><tr><td style="font-weight:bold;vertical-align:top;">web2py_original_uri</td><td style="vertical-align:top;">:</td><td><div>/Rainforest_Rhythm/calls?call_id=1</div></td></tr><tr><td style="font-weight:bold;vertical-align:top;">web2py_path</td><td style="vertical-align:top;">:</td><td><div>/Users/dorme/Research/SAFE/Web2Py/web2py</div></td></tr><tr><td style="font-weight:bold;vertical-align:top;">web2py_version</td><td style="vertical-align:top;">:</td><td><div>2.13.2-stable+timestamp.2015.12.18.11.00.46</div></td></tr><tr><td style="font-weight:bold;vertical-align:top;">wsgi.errors</td><td style="vertical-align:top;">:</td><td><div>&lt;open file &#x27;&lt;stderr&gt;&#x27;, mode &#x27;w&#x27; at 0x1002971e0&gt;</div></td></tr><tr><td style="font-weight:bold;vertical-align:top;">wsgi.file_wrapper</td><td style="vertical-align:top;">:</td><td><div>&lt;class wsgiref.util.FileWrapper at 0x10432e258&gt;</div></td></tr><tr><td style="font-weight:bold;vertical-align:top;">wsgi.input</td><td style="vertical-align:top;">:</td><td><div>&lt;socket._fileobject object at 0x10f153450&gt;</div></td></tr><tr><td style="font-weight:bold;vertical-align:top;">wsgi.multiprocess</td><td style="vertical-align:top;">:</td><td><div>False</div></td></tr><tr><td style="font-weight:bold;vertical-align:top;">wsgi.multithread</td><td style="vertical-align:top;">:</td><td><div>True</div></td></tr><tr><td style="font-weight:bold;vertical-align:top;">wsgi.run_once</td><td style="vertical-align:top;">:</td><td><div>False</div></td></tr><tr><td style="font-weight:bold;vertical-align:top;">wsgi.url_scheme</td><td style="vertical-align:top;">:</td><td><div>http</div></td></tr><tr><td style="font-weight:bold;vertical-align:top;">wsgi.version</td><td style="vertical-align:top;">:</td><td><div><table><tr><td><div>1</div></td></tr><tr><td><div>0</div></td></tr></table></div></td></tr><tr><td style="font-weight:bold;vertical-align:top;">wsgi_errors</td><td style="vertical-align:top;">:</td><td><div>&lt;open file &#x27;&lt;stderr&gt;&#x27;, mode &#x27;w&#x27; at 0x1002971e0&gt;</div></td></tr><tr><td style="font-weight:bold;vertical-align:top;">wsgi_file_wrapper</td><td style="vertical-align:top;">:</td><td><div>&lt;class wsgiref.util.FileWrapper at 0x10432e258&gt;</div></td></tr><tr><td style="font-weight:bold;vertical-align:top;">wsgi_input</td><td style="vertical-align:top;">:</td><td><div>&lt;socket._fileobject object at 0x10f153450&gt;</div></td></tr><tr><td style="font-weight:bold;vertical-align:top;">wsgi_multiprocess</td><td style="vertical-align:top;">:</td><td><div>False</div></td></tr><tr><td style="font-weight:bold;vertical-align:top;">wsgi_multithread</td><td style="vertical-align:top;">:</td><td><div>True</div></td></tr><tr><td style="font-weight:bold;vertical-align:top;">wsgi_run_once</td><td style="vertical-align:top;">:</td><td><div>False</div></td></tr><tr><td style="font-weight:bold;vertical-align:top;">wsgi_url_scheme</td><td style="vertical-align:top;">:</td><td><div>http</div></td></tr><tr><td style="font-weight:bold;vertical-align:top;">wsgi_version</td><td style="vertical-align:top;">:</td><td><div><table><tr><td><div>1</div></td></tr><tr><td><div>0</div></td></tr></table></div></td></tr></table></div></td></tr><tr><td style="font-weight:bold;vertical-align:top;">extension</td><td style="vertical-align:top;">:</td><td><div>html</div></td></tr><tr><td style="font-weight:bold;vertical-align:top;">folder</td><td style="vertical-align:top;">:</td><td><div>/Users/dorme/Research/SAFE/Web2Py/web2py/applications/Rainforest_Rhythm/</div></td></tr><tr><td style="font-weight:bold;vertical-align:top;">function</td><td style="vertical-align:top;">:</td><td><div>calls</div></td></tr><tr><td style="font-weight:bold;vertical-align:top;">global_settings</td><td style="vertical-align:top;">:</td><td><div><table><tr><td style="font-weight:bold;vertical-align:top;">app_folders</td><td style="vertical-align:top;">:</td><td><div>set([&#x27;/Users/dorme/Research/SAFE/Web2Py/web2py/applications/admin/&#x27;, &#x27;/Users/dorme/Research/SAFE/Web2Py/web2py/applications/Rainforest_Rhythm/&#x27;, &#x27;/Users/dorme/Research/SAFE/Web2Py/web2py/applications/SAFE_web/&#x27;])</div></td></tr><tr><td style="font-weight:bold;vertical-align:top;">applications_parent</td><td style="vertical-align:top;">:</td><td><div>/Users/dorme/Research/SAFE/Web2Py/web2py</div></td></tr><tr><td style="font-weight:bold;vertical-align:top;">cmd_args</td><td style="vertical-align:top;">:</td><td><div><table></table></div></td></tr><tr><td style="font-weight:bold;vertical-align:top;">cmd_options</td><td style="vertical-align:top;">:</td><td><div>&lt;Values at 0x104c00200: {&#x27;verbose&#x27;: False, &#x27;ip&#x27;: &#x27;127.0.0.1&#x27;, &#x27;debuglevel&#x27;: 30, &#x27;with_scheduler&#x27;: False, &#x27;ips&#x27;: [&#x27;129.31.3.3&#x27;], &#x27;shutdown_timeout&#x27;: 5, &#x27;taskbar&#x27;: False, &#x27;with_coverage&#x27;: False, &#x27;scheduler_groups&#x27;: None, &#x27;port&#x27;: 8000, &#x27;maxthreads&#x27;: None, &#x27;softcron&#x27;: False, &#x27;server_name&#x27;: &#x27;lb-dormelap.sp.ic.ac.uk&#x27;, &#x27;bpython&#x27;: False, &#x27;nogui&#x27;: False, &#x27;pid_filename&#x27;: &#x27;httpserver.pid&#x27;, &#x27;print_errors&#x27;: False, &#x27;extcron&#x27;: False, &#x27;runcron&#x27;: False, &#x27;run_system_tests&#x27;: False, &#x27;test&#x27;: None, &#x27;folder&#x27;: &#x27;/Users/dorme/Research/SAFE/Web2Py/web2py&#x27;, &#x27;config&#x27;: &#x27;&#x27;, &#x27;minthreads&#x27;: None, &#x27;shell&#x27;: None, &#x27;run&#x27;: &#x27;&#x27;, &#x27;log_filename&#x27;: &#x27;httpserver.log&#x27;, &#x27;profiler_dir&#x27;: None, &#x27;args&#x27;: [&#x27;&#x27;], &#x27;socket_timeout&#x27;: 5, &#x27;ssl_ca_certificate&#x27;: None, &#x27;scheduler&#x27;: None, &#x27;interfaces&#x27;: None, &#x27;ssl_private_key&#x27;: &#x27;&#x27;, &#x27;gae&#x27;: None, &#x27;password&#x27;: &#x27;&lt;ask&gt;&#x27;, &#x27;request_queue_size&#x27;: 5, &#x27;ssl_certificate&#x27;: &#x27;&#x27;, &#x27;cronjob&#x27;: False, &#x27;numthreads&#x27;: None, &#x27;quiet&#x27;: False, &#x27;import_models&#x27;: False, &#x27;timeout&#x27;: 10, &#x27;plain&#x27;: False, &#x27;nobanner&#x27;: False}&gt;</div></td></tr><tr><td style="font-weight:bold;vertical-align:top;">db_sessions</td><td style="vertical-align:top;">:</td><td><div>set([])</div></td></tr><tr><td style="font-weight:bold;vertical-align:top;">debugging</td><td style="vertical-align:top;">:</td><td><div>False</div></td></tr><tr><td style="font-weight:bold;vertical-align:top;">gluon_parent</td><td style="vertical-align:top;">:</td><td><div>/Users/dorme/Research/SAFE/Web2Py/web2py</div></td></tr><tr><td style="font-weight:bold;vertical-align:top;">is_jython</td><td style="vertical-align:top;">:</td><td><div>False</div></td></tr><tr><td style="font-weight:bold;vertical-align:top;">is_pypy</td><td style="vertical-align:top;">:</td><td><div>False</div></td></tr><tr><td style="font-weight:bold;vertical-align:top;">is_source</td><td style="vertical-align:top;">:</td><td><div>True</div></td></tr><tr><td style="font-weight:bold;vertical-align:top;">local_hosts</td><td style="vertical-align:top;">:</td><td><div><table><tr><td><div>129.31.3.3</div></td></tr><tr><td><div>::1</div></td></tr><tr><td><div>::ffff:127.0.0.1</div></td></tr><tr><td><div>127.0.0.1</div></td></tr><tr><td><div>lb-dormelap.sp.ic.ac.uk</div></td></tr></table></div></td></tr><tr><td style="font-weight:bold;vertical-align:top;">web2py_version</td><td style="vertical-align:top;">:</td><td><div>2.13.2-stable+timestamp.2015.12.18.11.00.46</div></td></tr></table></div></td></tr><tr><td style="font-weight:bold;vertical-align:top;">is_https</td><td style="vertical-align:top;">:</td><td><div>False</div></td></tr><tr><td style="font-weight:bold;vertical-align:top;">is_local</td><td style="vertical-align:top;">:</td><td><div>True</div></td></tr><tr><td style="font-weight:bold;vertical-align:top;">is_restful</td><td style="vertical-align:top;">:</td><td><div>False</div></td></tr><tr><td style="font-weight:bold;vertical-align:top;">is_scheduler</td><td style="vertical-align:top;">:</td><td><div>False</div></td></tr><tr><td style="font-weight:bold;vertical-align:top;">is_shell</td><td style="vertical-align:top;">:</td><td><div>False</div></td></tr><tr><td style="font-weight:bold;vertical-align:top;">now</td><td style="vertical-align:top;">:</td><td><div>datetime.datetime(2017, 4, 2, 8, 21, 34, 96109)</div></td></tr><tr><td style="font-weight:bold;vertical-align:top;">url</td><td style="vertical-align:top;">:</td><td><div>/Rainforest_Rhythm/calls</div></td></tr><tr><td style="font-weight:bold;vertical-align:top;">utcnow</td><td style="vertical-align:top;">:</td><td><div>datetime.datetime(2017, 4, 2, 7, 21, 34, 96116)</div></td></tr><tr><td style="font-weight:bold;vertical-align:top;">wsgi</td><td style="vertical-align:top;">:</td><td><div>&lt;gluon.main.LazyWSGI object at 0x104da5910&gt;</div></td></tr></table></div>'
tRp57
sS'frames'
p58
(lp59
(dp60
S'file'
p61
S'/Users/dorme/Research/SAFE/Web2Py/web2py/gluon/restricted.py'
p62
sS'dump'
p63
(dp64
S'environment'
p65
S"{'A': <class 'gluon.html.A'>, 'ANY_OF': <class 'gluon.validators.ANY_OF'>, 'ASSIGNJS': <function ASSIGNJS>, 'AppConfig': <function AppConfig>, 'AudioSegment': <class 'pydub.audio_segment.AudioSegment'>, 'Auth': <class 'gluon.tools.Auth'>, 'B': <class 'gluon.html.B'>, 'BEAUTIFY': <class 'gluon.html.BEAUTIFY'>, 'BODY': <class 'gluon.html.BODY'>, 'BR': <class 'gluon.html.BR'>, ...}"
p66
sS'ccode'
p67
S'<code object <module> at 0x10b352030, file "/Use...ainforest_Rhythm/controllers/default.py", line 4>'
p68
ssS'lnum'
p69
I227
sS'lines'
p70
(dp71
I224
S'            ccode = code'
p72
sI225
S'        else:'
p73
sI226
S'            ccode = compile2(code, layer)'
p74
sI227
S'        exec ccode in environment'
p75
sI228
S'    except HTTP:'
p76
sI229
S'        raise'
p77
sI230
S'    except RestrictedError:'
p78
sI231
S'        # do not encapsulate (obfuscate) the original RestrictedError'
p79
sI222
S'    try:'
p80
sI223
S'        if isinstance(code, types.CodeType):'
p81
ssS'call'
p82
S"(code='# -*- coding: utf-8 -*-\\n# this file is released ...vice()\\n\\n\\n\\nresponse._vars=response._caller(calls)\\n', environment={'A': <class 'gluon.html.A'>, 'ANY_OF': <class 'gluon.validators.ANY_OF'>, 'ASSIGNJS': <function ASSIGNJS>, 'AppConfig': <function AppConfig>, 'AudioSegment': <class 'pydub.audio_segment.AudioSegment'>, 'Auth': <class 'gluon.tools.Auth'>, 'B': <class 'gluon.html.B'>, 'BEAUTIFY': <class 'gluon.html.BEAUTIFY'>, 'BODY': <class 'gluon.html.BODY'>, 'BR': <class 'gluon.html.BR'>, ...}, layer='/Users/dorme/Research/SAFE/Web2Py/web2py/applications/Rainforest_Rhythm/controllers/default.py')"
p83
sS'func'
p84
S'restricted'
p85
sa(dp86
g61
S'/Users/dorme/Research/SAFE/Web2Py/web2py/applications/Rainforest_Rhythm/controllers/default.py'
p87
sg63
(dp88
sg69
I405
sg70
(dp89
I394
S'def call():'
p90
sI395
S'\t"""'
p91
sI396
S'\texposes services. for example:'
p92
sI397
S'\thttp://..../[app]/default/call/jsonrpc'
p93
sI398
S'\tdecorate with @services.jsonrpc the functions to expose'
p94
sI399
S'\tsupports xml, json, xmlrpc, jsonrpc, amfrpc, rss, csv'
p95
sI400
S'\t"""'
p96
sI401
S'\treturn service()'
p97
sI402
S''
sI403
S''
ssg82
S'()'
p98
sg84
S'<module>'
p99
sa(dp100
g61
S'/Users/dorme/Research/SAFE/Web2Py/web2py/gluon/globals.py'
p101
sg63
(dp102
S'self'
p103
S'undefined'
p104
sS'f'
S'<function calls>'
p105
ssg69
I412
sg70
(dp106
I416
S"        self.generic_patterns = ['*']"
p107
sI407
S"        self.flash = ''            # used by the default view layout"
p108
sI408
S'        self.meta = Storage()      # used by web2py_ajax.html'
p109
sI409
S'        self.menu = []             # used by the default view layout'
p110
sI410
S'        self.files = []            # used by web2py_ajax.html'
p111
sI411
S'        self._vars = None'
p112
sI412
S'        self._caller = lambda f: f()'
p113
sI413
S'        self._view_environment = None'
p114
sI414
S'        self._custom_commit = None'
p115
sI415
S'        self._custom_rollback = None'
p116
ssg82
S'(f=<function calls>)'
p117
sg84
S'<lambda>'
p118
sa(dp119
g61
S'/Users/dorme/Research/SAFE/Web2Py/web2py/applications/Rainforest_Rhythm/controllers/default.py'
p120
sg63
(dp121
S'r'
S"<Row {'taxa': {'common_name': 'Crow', 'subspecie...atetime.datetime(2017, 1, 11, 12, 0), 'id': 1L}}>"
p122
sS'r.id'
p123
g104
ssg69
I276
sg70
(dp124
I271
S"\t\t\t\t\t\t\t\t\t\tTAG.small(' Proposed by {} {} on {}.'.format(r.auth_user.first_name,"
p125
sI272
S'\t\t\t\t\t\t\t\t\t\t\t\t  r.auth_user.last_name, r.identifications.created_on)),'
p126
sI273
S"\t\t\t\t\t\t\t\t\t_class='col-sm-6'),"
p127
sI274
S'\t\t\t\t\t\t\t\tDIV(_votebar(r.identifications.current_score,'
p128
sI275
S'\t\t\t\t\t\t\t\t\t\t\t r.identifications.n_scores,'
p129
sI276
S'\t\t\t\t\t\t\t\t\t\t\t r.id),'
p130
sI277
S'\t\t\t\t\t\t\t\t\t_your_vote(0, r.identifications.id),'
p131
sI278
S"\t\t\t\t\t\t\t\t\t_class='col-sm-6'),"
p132
sI279
S"\t\t\t\t\t\t\t\t_class='media-body'),"
p133
sI280
S'\t\t\t\t\t\t\t_class="media"),'
p134
ssg82
S'()'
p135
sg84
S'calls'
p136
sa(dp137
g61
S'/Users/dorme/Research/SAFE/Web2Py/web2py/gluon/packages/dal/pydal/objects.py'
p138
sg63
(dp139
S'builtinAttributeError'
p140
S"<type 'exceptions.AttributeError'>"
p141
ssg69
I90
sg70
(dp142
I85
S''
sI86
S'    def __getattr__(self, k):'
p143
sI87
S'        try:'
p144
sI88
S'            return self.__getitem__(k)'
p145
sI89
S'        except KeyError:'
p146
sI90
S'            raise AttributeError'
p147
sI91
S''
sI92
S'    def __copy__(self):'
p148
sI93
S'        return Row(self)'
p149
sI94
S''
ssg82
S"(self=<Row {'taxa': {'common_name': 'Crow', 'subspecie...atetime.datetime(2017, 1, 11, 12, 0), 'id': 1L}}>, k='id')"
p150
sg84
S'__getattr__'
p151
sasS'pyver'
p152
S'Python 2.7.11: /Library/Frameworks/Python.framework/Versions/2.7/Resources/Python.app/Contents/MacOS/Python (prefix: /Library/Frameworks/Python.framework/Versions/2.7)'
p153
sS'session'
p154
g56
(S's\x1a\x00\x00\x00<div><table></table></div>'
tRp155
sS'etype'
p156
S"<type 'exceptions.AttributeError'>"
p157
sS'date'
p158
S'Sun Apr  2 08:21:34 2017'
p159
sS'response'
p160
g56
(S'sm \x00\x00<div><table><tr><td style="font-weight:bold;vertical-align:top;">body</td><td style="vertical-align:top;">:</td><td><div>&lt;cStringIO.StringO object at 0x104da6c38&gt;</div></td></tr><tr><td style="font-weight:bold;vertical-align:top;">cookies</td><td style="vertical-align:top;">:</td><td><div><table><tr><td style="font-weight:bold;vertical-align:top;">session_id_rainforest_rhythm</td><td style="vertical-align:top;">:</td><td><div>127.0.0.1-722ca32f-84c0-4726-b89a-c0503ea2de78<table><tr><td style="font-weight:bold;vertical-align:top;">comment</td><td style="vertical-align:top;">:</td><td><div></div></td></tr><tr><td style="font-weight:bold;vertical-align:top;">domain</td><td style="vertical-align:top;">:</td><td><div></div></td></tr><tr><td style="font-weight:bold;vertical-align:top;">expires</td><td style="vertical-align:top;">:</td><td><div></div></td></tr><tr><td style="font-weight:bold;vertical-align:top;">httponly</td><td style="vertical-align:top;">:</td><td><div></div></td></tr><tr><td style="font-weight:bold;vertical-align:top;">max-age</td><td style="vertical-align:top;">:</td><td><div></div></td></tr><tr><td style="font-weight:bold;vertical-align:top;">path</td><td style="vertical-align:top;">:</td><td><div>/</div></td></tr><tr><td style="font-weight:bold;vertical-align:top;">secure</td><td style="vertical-align:top;">:</td><td><div></div></td></tr><tr><td style="font-weight:bold;vertical-align:top;">version</td><td style="vertical-align:top;">:</td><td><div></div></td></tr></table></div></td></tr></table></div></td></tr><tr><td style="font-weight:bold;vertical-align:top;">delimiters</td><td style="vertical-align:top;">:</td><td><div><table><tr><td><div>{{</div></td></tr><tr><td><div>}}</div></td></tr></table></div></td></tr><tr><td style="font-weight:bold;vertical-align:top;">files</td><td style="vertical-align:top;">:</td><td><div><table></table></div></td></tr><tr><td style="font-weight:bold;vertical-align:top;">flash</td><td style="vertical-align:top;">:</td><td><div></div></td></tr><tr><td style="font-weight:bold;vertical-align:top;">form_label_separator</td><td style="vertical-align:top;">:</td><td><div></div></td></tr><tr><td style="font-weight:bold;vertical-align:top;">formstyle</td><td style="vertical-align:top;">:</td><td><div>bootstrap3_inline</div></td></tr><tr><td style="font-weight:bold;vertical-align:top;">generic_patterns</td><td style="vertical-align:top;">:</td><td><div><table><tr><td><div>*</div></td></tr></table></div></td></tr><tr><td style="font-weight:bold;vertical-align:top;">google_analytics_id</td><td style="vertical-align:top;">:</td><td><div>None</div></td></tr><tr><td style="font-weight:bold;vertical-align:top;">headers</td><td style="vertical-align:top;">:</td><td><div><table><tr><td style="font-weight:bold;vertical-align:top;">X-Powered-By</td><td style="vertical-align:top;">:</td><td><div>web2py</div></td></tr></table></div></td></tr><tr><td style="font-weight:bold;vertical-align:top;">logo</td><td style="vertical-align:top;">:</td><td><div><a><img src="/Rainforest_Rhythm/static/images/logo-rainforest-rhythms-dark.png" /></a></div></td></tr><tr><td style="font-weight:bold;vertical-align:top;">menu</td><td style="vertical-align:top;">:</td><td><div><table><tr><td><div><table><tr><td><div>Home</div></td></tr><tr><td><div>False</div></td></tr><tr><td><div>/Rainforest_Rhythm</div></td></tr><tr><td><div><table></table></div></td></tr></table></div></td></tr><tr><td><div><table><tr><td><div>Recordings</div></td></tr><tr><td><div>False</div></td></tr><tr><td><div>/Rainforest_Rhythm/recordings</div></td></tr><tr><td><div><table></table></div></td></tr></table></div></td></tr><tr><td><div><table><tr><td><div>Calls</div></td></tr><tr><td><div>False</div></td></tr><tr><td><div>/Rainforest_Rhythm/calls</div></td></tr><tr><td><div><table></table></div></td></tr></table></div></td></tr><tr><td><div><table><tr><td><div>Taxa</div></td></tr><tr><td><div>False</div></td></tr><tr><td><div>/Rainforest_Rhythm/taxa</div></td></tr><tr><td><div><table></table></div></td></tr></table></div></td></tr></table></div></td></tr><tr><td style="font-weight:bold;vertical-align:top;">meta</td><td style="vertical-align:top;">:</td><td><div><table><tr><td style="font-weight:bold;vertical-align:top;">author</td><td style="vertical-align:top;">:</td><td><div>Your Name &lt;you@example.com&gt;</div></td></tr><tr><td style="font-weight:bold;vertical-align:top;">description</td><td style="vertical-align:top;">:</td><td><div>a cool new app</div></td></tr><tr><td style="font-weight:bold;vertical-align:top;">generator</td><td style="vertical-align:top;">:</td><td><div>Web2py Web Framework</div></td></tr><tr><td style="font-weight:bold;vertical-align:top;">keywords</td><td style="vertical-align:top;">:</td><td><div>web2py, python, framework</div></td></tr></table></div></td></tr><tr><td style="font-weight:bold;vertical-align:top;">models_to_run</td><td style="vertical-align:top;">:</td><td><div><table><tr><td><div>^\\w+\\.py$</div></td></tr><tr><td><div>^default/\\w+\\.py$</div></td></tr><tr><td><div>^default/calls/\\w+\\.py$</div></td></tr></table></div></td></tr><tr><td style="font-weight:bold;vertical-align:top;">postprocessing</td><td style="vertical-align:top;">:</td><td><div><table></table></div></td></tr><tr><td style="font-weight:bold;vertical-align:top;">session_client</td><td style="vertical-align:top;">:</td><td><div>127.0.0.1</div></td></tr><tr><td style="font-weight:bold;vertical-align:top;">session_cookie_compression_level</td><td style="vertical-align:top;">:</td><td><div>None</div></td></tr><tr><td style="font-weight:bold;vertical-align:top;">session_cookie_expires</td><td style="vertical-align:top;">:</td><td><div>None</div></td></tr><tr><td style="font-weight:bold;vertical-align:top;">session_cookie_key</td><td style="vertical-align:top;">:</td><td><div>None</div></td></tr><tr><td style="font-weight:bold;vertical-align:top;">session_data_name</td><td style="vertical-align:top;">:</td><td><div>session_data_rainforest_rhythm</div></td></tr><tr><td style="font-weight:bold;vertical-align:top;">session_file</td><td style="vertical-align:top;">:</td><td><div>&lt;open file &#x27;/Users/dorme/Research/SAFE/Web2Py/web2py/applications/Rainforest_Rhythm/sessions/18d/1b9/127.0.0.1-722ca32f-84c0-4726-b89a-c0503ea2de78&#x27;, mode &#x27;rb+&#x27; at 0x10f12bc90&gt;</div></td></tr><tr><td style="font-weight:bold;vertical-align:top;">session_filename</td><td style="vertical-align:top;">:</td><td><div>/Users/dorme/Research/SAFE/Web2Py/web2py/applications/Rainforest_Rhythm/sessions/127.0.0.1-722ca32f-84c0-4726-b89a-c0503ea2de78</div></td></tr><tr><td style="font-weight:bold;vertical-align:top;">session_hash</td><td style="vertical-align:top;">:</td><td><div>c0762cbf4baf7f9af97c051e7fcb8083</div></td></tr><tr><td style="font-weight:bold;vertical-align:top;">session_id</td><td style="vertical-align:top;">:</td><td><div>127.0.0.1-722ca32f-84c0-4726-b89a-c0503ea2de78</div></td></tr><tr><td style="font-weight:bold;vertical-align:top;">session_id_name</td><td style="vertical-align:top;">:</td><td><div>session_id_rainforest_rhythm</div></td></tr><tr><td style="font-weight:bold;vertical-align:top;">session_locked</td><td style="vertical-align:top;">:</td><td><div>True</div></td></tr><tr><td style="font-weight:bold;vertical-align:top;">session_masterapp</td><td style="vertical-align:top;">:</td><td><div>Rainforest_Rhythm</div></td></tr><tr><td style="font-weight:bold;vertical-align:top;">session_new</td><td style="vertical-align:top;">:</td><td><div>False</div></td></tr><tr><td style="font-weight:bold;vertical-align:top;">session_storage_type</td><td style="vertical-align:top;">:</td><td><div>file</div></td></tr><tr><td style="font-weight:bold;vertical-align:top;">status</td><td style="vertical-align:top;">:</td><td><div>200</div></td></tr><tr><td style="font-weight:bold;vertical-align:top;">subtitle</td><td style="vertical-align:top;">:</td><td><div></div></td></tr><tr><td style="font-weight:bold;vertical-align:top;">title</td><td style="vertical-align:top;">:</td><td><div>Rainforest Rhythm</div></td></tr><tr><td style="font-weight:bold;vertical-align:top;">view</td><td style="vertical-align:top;">:</td><td><div>default/calls.html</div></td></tr></table></div>'
tRp161
sS'locals'
p162
(dp163
S'k'
S"'id'"
p164
sS'self'
p165
S"<Row {'taxa': {'common_name': 'Crow', 'subspecie...atetime.datetime(2017, 1, 11, 12, 0), 'id': 1L}}>"
p166
sssS'traceback'
p167
S'Traceback (most recent call last):\n  File "/Users/dorme/Research/SAFE/Web2Py/web2py/gluon/restricted.py", line 227, in restricted\n    exec ccode in environment\n  File "/Users/dorme/Research/SAFE/Web2Py/web2py/applications/Rainforest_Rhythm/controllers/default.py", line 405, in <module>\n  File "/Users/dorme/Research/SAFE/Web2Py/web2py/gluon/globals.py", line 412, in <lambda>\n    self._caller = lambda f: f()\n  File "/Users/dorme/Research/SAFE/Web2Py/web2py/applications/Rainforest_Rhythm/controllers/default.py", line 276, in calls\n    r.id),\n  File "/Users/dorme/Research/SAFE/Web2Py/web2py/gluon/packages/dal/pydal/objects.py", line 90, in __getattr__\n    raise AttributeError\nAttributeError\n'
p168
s.