(dp1
S'output'
p2
S''
sS'layer'
p3
S'Framework'
p4
sS'code'
p5
S''
sS'snapshot'
p6
(dp7
S'exception'
p8
(dp9
S'__hash__'
p10
S"<method-wrapper '__hash__' of exceptions.NameError object>"
p11
sS'__setattr__'
p12
S"<method-wrapper '__setattr__' of exceptions.NameError object>"
p13
sS'__reduce_ex__'
p14
S'<built-in method __reduce_ex__ of exceptions.NameError object>'
p15
sS'__getslice__'
p16
S"<method-wrapper '__getslice__' of exceptions.NameError object>"
p17
sS'__getitem__'
p18
S"<method-wrapper '__getitem__' of exceptions.NameError object>"
p19
sS'__setstate__'
p20
S'<built-in method __setstate__ of exceptions.NameError object>'
p21
sS'args'
p22
S'("name \'layout\' is not defined",)'
p23
sS'__reduce__'
p24
S'<built-in method __reduce__ of exceptions.NameError object>'
p25
sS'__str__'
p26
S"<method-wrapper '__str__' of exceptions.NameError object>"
p27
sS'__format__'
p28
S'<built-in method __format__ of exceptions.NameError object>'
p29
sS'__getattribute__'
p30
S"<method-wrapper '__getattribute__' of exceptions.NameError object>"
p31
sS'__class__'
p32
S"<type 'exceptions.NameError'>"
p33
sS'__unicode__'
p34
S'<built-in method __unicode__ of exceptions.NameError object>'
p35
sS'__delattr__'
p36
S"<method-wrapper '__delattr__' of exceptions.NameError object>"
p37
sS'__subclasshook__'
p38
S'<built-in method __subclasshook__ of type object>'
p39
sS'__repr__'
p40
S"<method-wrapper '__repr__' of exceptions.NameError object>"
p41
sS'__dict__'
p42
S'{}'
p43
sS'__sizeof__'
p44
S'<built-in method __sizeof__ of exceptions.NameError object>'
p45
sS'__doc__'
p46
S"'Name not found globally.'"
p47
sS'__init__'
p48
S"<method-wrapper '__init__' of exceptions.NameError object>"
p49
sS'__new__'
p50
S'<built-in method __new__ of type object>'
p51
ssS'evalue'
p52
S"name 'layout' is not defined"
p53
sS'request'
p54
cgluon.html
XML_unpickle
p55
(S's\x94d\x00\x00<div><table><tr><td style="font-weight:bold;vertical-align:top;">ajax</td><td style="vertical-align:top;">:</td><td><div>False</div></td></tr><tr><td style="font-weight:bold;vertical-align:top;">application</td><td style="vertical-align:top;">:</td><td><div>RainforestRhythmn</div></td></tr><tr><td style="font-weight:bold;vertical-align:top;">args</td><td style="vertical-align:top;">:</td><td><div><table></table></div></td></tr><tr><td style="font-weight:bold;vertical-align:top;">cid</td><td style="vertical-align:top;">:</td><td><div>None</div></td></tr><tr><td style="font-weight:bold;vertical-align:top;">client</td><td style="vertical-align:top;">:</td><td><div>127.0.0.1</div></td></tr><tr><td style="font-weight:bold;vertical-align:top;">controller</td><td style="vertical-align:top;">:</td><td><div>default</div></td></tr><tr><td style="font-weight:bold;vertical-align:top;">cookies</td><td style="vertical-align:top;">:</td><td><div><table><tr><td style="font-weight:bold;vertical-align:top;">session_id_admin</td><td style="vertical-align:top;">:</td><td><div>127.0.0.1-c73f8faa-4aad-4af4-8767-e2884d8ecd9e<table><tr><td style="font-weight:bold;vertical-align:top;">comment</td><td style="vertical-align:top;">:</td><td><div></div></td></tr><tr><td style="font-weight:bold;vertical-align:top;">domain</td><td style="vertical-align:top;">:</td><td><div></div></td></tr><tr><td style="font-weight:bold;vertical-align:top;">expires</td><td style="vertical-align:top;">:</td><td><div></div></td></tr><tr><td style="font-weight:bold;vertical-align:top;">httponly</td><td style="vertical-align:top;">:</td><td><div></div></td></tr><tr><td style="font-weight:bold;vertical-align:top;">max-age</td><td style="vertical-align:top;">:</td><td><div></div></td></tr><tr><td style="font-weight:bold;vertical-align:top;">path</td><td style="vertical-align:top;">:</td><td><div></div></td></tr><tr><td style="font-weight:bold;vertical-align:top;">secure</td><td style="vertical-align:top;">:</td><td><div></div></td></tr><tr><td style="font-weight:bold;vertical-align:top;">version</td><td style="vertical-align:top;">:</td><td><div></div></td></tr></table></div></td></tr><tr><td style="font-weight:bold;vertical-align:top;">session_id_marking</td><td style="vertical-align:top;">:</td><td><div>127.0.0.1-d05e4059-53a3-4bce-8c2c-4eeed74107b9<table><tr><td style="font-weight:bold;vertical-align:top;">comment</td><td style="vertical-align:top;">:</td><td><div></div></td></tr><tr><td style="font-weight:bold;vertical-align:top;">domain</td><td style="vertical-align:top;">:</td><td><div></div></td></tr><tr><td style="font-weight:bold;vertical-align:top;">expires</td><td style="vertical-align:top;">:</td><td><div></div></td></tr><tr><td style="font-weight:bold;vertical-align:top;">httponly</td><td style="vertical-align:top;">:</td><td><div></div></td></tr><tr><td style="font-weight:bold;vertical-align:top;">max-age</td><td style="vertical-align:top;">:</td><td><div></div></td></tr><tr><td style="font-weight:bold;vertical-align:top;">path</td><td style="vertical-align:top;">:</td><td><div></div></td></tr><tr><td style="font-weight:bold;vertical-align:top;">secure</td><td style="vertical-align:top;">:</td><td><div></div></td></tr><tr><td style="font-weight:bold;vertical-align:top;">version</td><td style="vertical-align:top;">:</td><td><div></div></td></tr></table></div></td></tr><tr><td style="font-weight:bold;vertical-align:top;">session_id_rainforestrhythm</td><td style="vertical-align:top;">:</td><td><div>127.0.0.1-39040445-3b0f-4c23-be8a-0fc226f93152<table><tr><td style="font-weight:bold;vertical-align:top;">comment</td><td style="vertical-align:top;">:</td><td><div></div></td></tr><tr><td style="font-weight:bold;vertical-align:top;">domain</td><td style="vertical-align:top;">:</td><td><div></div></td></tr><tr><td style="font-weight:bold;vertical-align:top;">expires</td><td style="vertical-align:top;">:</td><td><div></div></td></tr><tr><td style="font-weight:bold;vertical-align:top;">httponly</td><td style="vertical-align:top;">:</td><td><div></div></td></tr><tr><td style="font-weight:bold;vertical-align:top;">max-age</td><td style="vertical-align:top;">:</td><td><div></div></td></tr><tr><td style="font-weight:bold;vertical-align:top;">path</td><td style="vertical-align:top;">:</td><td><div></div></td></tr><tr><td style="font-weight:bold;vertical-align:top;">secure</td><td style="vertical-align:top;">:</td><td><div></div></td></tr><tr><td style="font-weight:bold;vertical-align:top;">version</td><td style="vertical-align:top;">:</td><td><div></div></td></tr></table></div></td></tr><tr><td style="font-weight:bold;vertical-align:top;">session_id_rainforestrhythmn</td><td style="vertical-align:top;">:</td><td><div>127.0.0.1-d485acb4-0a9f-46a2-b08c-9b20afa17f73<table><tr><td style="font-weight:bold;vertical-align:top;">comment</td><td style="vertical-align:top;">:</td><td><div></div></td></tr><tr><td style="font-weight:bold;vertical-align:top;">domain</td><td style="vertical-align:top;">:</td><td><div></div></td></tr><tr><td style="font-weight:bold;vertical-align:top;">expires</td><td style="vertical-align:top;">:</td><td><div></div></td></tr><tr><td style="font-weight:bold;vertical-align:top;">httponly</td><td style="vertical-align:top;">:</td><td><div></div></td></tr><tr><td style="font-weight:bold;vertical-align:top;">max-age</td><td style="vertical-align:top;">:</td><td><div></div></td></tr><tr><td style="font-weight:bold;vertical-align:top;">path</td><td style="vertical-align:top;">:</td><td><div></div></td></tr><tr><td style="font-weight:bold;vertical-align:top;">secure</td><td style="vertical-align:top;">:</td><td><div></div></td></tr><tr><td style="font-weight:bold;vertical-align:top;">version</td><td style="vertical-align:top;">:</td><td><div></div></td></tr></table></div></td></tr></table></div></td></tr><tr><td style="font-weight:bold;vertical-align:top;">env</td><td style="vertical-align:top;">:</td><td><div><table><tr><td style="font-weight:bold;vertical-align:top;">HTTP_ACCEPT</td><td style="vertical-align:top;">:</td><td><div>text/html,application/xhtml+xml,application/xml;q=0.9,image/webp,*/*;q=0.8</div></td></tr><tr><td style="font-weight:bold;vertical-align:top;">HTTP_ACCEPT_ENCODING</td><td style="vertical-align:top;">:</td><td><div>gzip, deflate, sdch, br</div></td></tr><tr><td style="font-weight:bold;vertical-align:top;">HTTP_ACCEPT_LANGUAGE</td><td style="vertical-align:top;">:</td><td><div>en-US,en;q=0.8</div></td></tr><tr><td style="font-weight:bold;vertical-align:top;">HTTP_CACHE_CONTROL</td><td style="vertical-align:top;">:</td><td><div>max-age=0</div></td></tr><tr><td style="font-weight:bold;vertical-align:top;">HTTP_CONNECTION</td><td style="vertical-align:top;">:</td><td><div>keep-alive</div></td></tr><tr><td style="font-weight:bold;vertical-align:top;">HTTP_COOKIE</td><td style="vertical-align:top;">:</td><td><div>session_id_rainforestrhythm=127.0.0.1-39040445-3b0f-4c23-be8a-0fc226f93152; session_id_marking=127.0.0.1-d05e4059-53a3-4bce-8c2c-4eeed74107b9; session_id_admin=127.0.0.1-c73f8faa-4aad-4af4-8767-e2884d8ecd9e; session_id_rainforestrhythmn=127.0.0.1-d485acb4-0a9f-46a2-b08c-9b20afa17f73</div></td></tr><tr><td style="font-weight:bold;vertical-align:top;">HTTP_HOST</td><td style="vertical-align:top;">:</td><td><div>127.0.0.1:8000</div></td></tr><tr><td style="font-weight:bold;vertical-align:top;">HTTP_UPGRADE_INSECURE_REQUESTS</td><td style="vertical-align:top;">:</td><td><div>1</div></td></tr><tr><td style="font-weight:bold;vertical-align:top;">HTTP_USER_AGENT</td><td style="vertical-align:top;">:</td><td><div>Mozilla/5.0 (Macintosh; Intel Mac OS X 10_10_5) AppleWebKit/537.36 (KHTML, like Gecko) Chrome/55.0.2883.95 Safari/537.36</div></td></tr><tr><td style="font-weight:bold;vertical-align:top;">PATH_INFO</td><td style="vertical-align:top;">:</td><td><div>/RainforestRhythmn/default/index.html</div></td></tr><tr><td style="font-weight:bold;vertical-align:top;">QUERY_STRING</td><td style="vertical-align:top;">:</td><td><div></div></td></tr><tr><td style="font-weight:bold;vertical-align:top;">REMOTE_ADDR</td><td style="vertical-align:top;">:</td><td><div>127.0.0.1</div></td></tr><tr><td style="font-weight:bold;vertical-align:top;">REMOTE_PORT</td><td style="vertical-align:top;">:</td><td><div>52314</div></td></tr><tr><td style="font-weight:bold;vertical-align:top;">REQUEST_METHOD</td><td style="vertical-align:top;">:</td><td><div>GET</div></td></tr><tr><td style="font-weight:bold;vertical-align:top;">SCRIPT_NAME</td><td style="vertical-align:top;">:</td><td><div></div></td></tr><tr><td style="font-weight:bold;vertical-align:top;">SERVER_NAME</td><td style="vertical-align:top;">:</td><td><div>Davids-MacBook-Pro.local</div></td></tr><tr><td style="font-weight:bold;vertical-align:top;">SERVER_PORT</td><td style="vertical-align:top;">:</td><td><div>8000</div></td></tr><tr><td style="font-weight:bold;vertical-align:top;">SERVER_PROTOCOL</td><td style="vertical-align:top;">:</td><td><div>HTTP/1.1</div></td></tr><tr><td style="font-weight:bold;vertical-align:top;">SERVER_SOFTWARE</td><td style="vertical-align:top;">:</td><td><div>Rocket 1.2.6</div></td></tr><tr><td style="font-weight:bold;vertical-align:top;">app_folders</td><td style="vertical-align:top;">:</td><td><div>set([&#x27;/Users/dorme/Research/SAFE/Web2Py/web2py/applications/admin/&#x27;, &#x27;/Users/dorme/Research/SAFE/Web2Py/web2py/applications/RainforestRhythmn/&#x27;, &#x27;/Users/dorme/Research/SAFE/Web2Py/web2py/applications/Marking/&#x27;, &#x27;/Users/dorme/Research/SAFE/Web2Py/web2py/applications/RainforestRhythm/&#x27;, &#x27;/Users/dorme/Research/SAFE/Web2Py/web2py/applications/SAFE_web/&#x27;])</div></td></tr><tr><td style="font-weight:bold;vertical-align:top;">applications_parent</td><td style="vertical-align:top;">:</td><td><div>/Users/dorme/Research/SAFE/Web2Py/web2py</div></td></tr><tr><td style="font-weight:bold;vertical-align:top;">cmd_args</td><td style="vertical-align:top;">:</td><td><div><table></table></div></td></tr><tr><td style="font-weight:bold;vertical-align:top;">cmd_options</td><td style="vertical-align:top;">:</td><td><div>&lt;Values at 0x1043a04d0: {&#x27;verbose&#x27;: False, &#x27;ip&#x27;: &#x27;127.0.0.1&#x27;, &#x27;debuglevel&#x27;: 30, &#x27;with_scheduler&#x27;: False, &#x27;ips&#x27;: [&#x27;192.168.0.3&#x27;, &#x27;fe80::a65e:60ff:feeb:b729%en0&#x27;], &#x27;shutdown_timeout&#x27;: 5, &#x27;taskbar&#x27;: False, &#x27;with_coverage&#x27;: False, &#x27;scheduler_groups&#x27;: None, &#x27;port&#x27;: 8000, &#x27;maxthreads&#x27;: None, &#x27;softcron&#x27;: False, &#x27;server_name&#x27;: &#x27;Davids-MacBook-Pro.local&#x27;, &#x27;bpython&#x27;: False, &#x27;nogui&#x27;: False, &#x27;pid_filename&#x27;: &#x27;httpserver.pid&#x27;, &#x27;print_errors&#x27;: False, &#x27;extcron&#x27;: False, &#x27;runcron&#x27;: False, &#x27;run_system_tests&#x27;: False, &#x27;test&#x27;: None, &#x27;folder&#x27;: &#x27;/Users/dorme/Research/SAFE/Web2Py/web2py&#x27;, &#x27;config&#x27;: &#x27;&#x27;, &#x27;minthreads&#x27;: None, &#x27;shell&#x27;: None, &#x27;run&#x27;: &#x27;&#x27;, &#x27;log_filename&#x27;: &#x27;httpserver.log&#x27;, &#x27;profiler_dir&#x27;: None, &#x27;args&#x27;: [&#x27;&#x27;], &#x27;socket_timeout&#x27;: 5, &#x27;ssl_ca_certificate&#x27;: None, &#x27;scheduler&#x27;: None, &#x27;interfaces&#x27;: None, &#x27;ssl_private_key&#x27;: &#x27;&#x27;, &#x27;gae&#x27;: None, &#x27;password&#x27;: &#x27;&lt;ask&gt;&#x27;, &#x27;request_queue_size&#x27;: 5, &#x27;ssl_certificate&#x27;: &#x27;&#x27;, &#x27;cronjob&#x27;: False, &#x27;numthreads&#x27;: None, &#x27;quiet&#x27;: False, &#x27;import_models&#x27;: False, &#x27;timeout&#x27;: 10, &#x27;plain&#x27;: False, &#x27;nobanner&#x27;: False}&gt;</div></td></tr><tr><td style="font-weight:bold;vertical-align:top;">db_sessions</td><td style="vertical-align:top;">:</td><td><div>set([])</div></td></tr><tr><td style="font-weight:bold;vertical-align:top;">debugging</td><td style="vertical-align:top;">:</td><td><div>False</div></td></tr><tr><td style="font-weight:bold;vertical-align:top;">gluon_parent</td><td style="vertical-align:top;">:</td><td><div>/Users/dorme/Research/SAFE/Web2Py/web2py</div></td></tr><tr><td style="font-weight:bold;vertical-align:top;">http_accept</td><td style="vertical-align:top;">:</td><td><div>text/html,application/xhtml+xml,application/xml;q=0.9,image/webp,*/*;q=0.8</div></td></tr><tr><td style="font-weight:bold;vertical-align:top;">http_accept_encoding</td><td style="vertical-align:top;">:</td><td><div>gzip, deflate, sdch, br</div></td></tr><tr><td style="font-weight:bold;vertical-align:top;">http_accept_language</td><td style="vertical-align:top;">:</td><td><div>en-US,en;q=0.8</div></td></tr><tr><td style="font-weight:bold;vertical-align:top;">http_cache_control</td><td style="vertical-align:top;">:</td><td><div>max-age=0</div></td></tr><tr><td style="font-weight:bold;vertical-align:top;">http_connection</td><td style="vertical-align:top;">:</td><td><div>keep-alive</div></td></tr><tr><td style="font-weight:bold;vertical-align:top;">http_cookie</td><td style="vertical-align:top;">:</td><td><div>session_id_rainforestrhythm=127.0.0.1-39040445-3b0f-4c23-be8a-0fc226f93152; session_id_marking=127.0.0.1-d05e4059-53a3-4bce-8c2c-4eeed74107b9; session_id_admin=127.0.0.1-c73f8faa-4aad-4af4-8767-e2884d8ecd9e; session_id_rainforestrhythmn=127.0.0.1-d485acb4-0a9f-46a2-b08c-9b20afa17f73</div></td></tr><tr><td style="font-weight:bold;vertical-align:top;">http_host</td><td style="vertical-align:top;">:</td><td><div>127.0.0.1:8000</div></td></tr><tr><td style="font-weight:bold;vertical-align:top;">http_upgrade_insecure_requests</td><td style="vertical-align:top;">:</td><td><div>1</div></td></tr><tr><td style="font-weight:bold;vertical-align:top;">http_user_agent</td><td style="vertical-align:top;">:</td><td><div>Mozilla/5.0 (Macintosh; Intel Mac OS X 10_10_5) AppleWebKit/537.36 (KHTML, like Gecko) Chrome/55.0.2883.95 Safari/537.36</div></td></tr><tr><td style="font-weight:bold;vertical-align:top;">is_jython</td><td style="vertical-align:top;">:</td><td><div>False</div></td></tr><tr><td style="font-weight:bold;vertical-align:top;">is_pypy</td><td style="vertical-align:top;">:</td><td><div>False</div></td></tr><tr><td style="font-weight:bold;vertical-align:top;">is_source</td><td style="vertical-align:top;">:</td><td><div>True</div></td></tr><tr><td style="font-weight:bold;vertical-align:top;">local_hosts</td><td style="vertical-align:top;">:</td><td><div><table><tr><td><div>fe80::a65e:60ff:feeb:b729%en0</div></td></tr><tr><td><div>::ffff:127.0.0.1</div></td></tr><tr><td><div>::1</div></td></tr><tr><td><div>192.168.0.3</div></td></tr><tr><td><div>Davids-MacBook-Pro.local</div></td></tr><tr><td><div>127.0.0.1</div></td></tr></table></div></td></tr><tr><td style="font-weight:bold;vertical-align:top;">path_info</td><td style="vertical-align:top;">:</td><td><div>/RainforestRhythmn/default/index.html</div></td></tr><tr><td style="font-weight:bold;vertical-align:top;">query_string</td><td style="vertical-align:top;">:</td><td><div></div></td></tr><tr><td style="font-weight:bold;vertical-align:top;">remote_addr</td><td style="vertical-align:top;">:</td><td><div>127.0.0.1</div></td></tr><tr><td style="font-weight:bold;vertical-align:top;">remote_port</td><td style="vertical-align:top;">:</td><td><div>52314</div></td></tr><tr><td style="font-weight:bold;vertical-align:top;">request_method</td><td style="vertical-align:top;">:</td><td><div>GET</div></td></tr><tr><td style="font-weight:bold;vertical-align:top;">request_uri</td><td style="vertical-align:top;">:</td><td><div>/RainforestRhythmn/default/index</div></td></tr><tr><td style="font-weight:bold;vertical-align:top;">script_name</td><td style="vertical-align:top;">:</td><td><div></div></td></tr><tr><td style="font-weight:bold;vertical-align:top;">server_name</td><td style="vertical-align:top;">:</td><td><div>Davids-MacBook-Pro.local</div></td></tr><tr><td style="font-weight:bold;vertical-align:top;">server_port</td><td style="vertical-align:top;">:</td><td><div>8000</div></td></tr><tr><td style="font-weight:bold;vertical-align:top;">server_protocol</td><td style="vertical-align:top;">:</td><td><div>HTTP/1.1</div></td></tr><tr><td style="font-weight:bold;vertical-align:top;">server_software</td><td style="vertical-align:top;">:</td><td><div>Rocket 1.2.6</div></td></tr><tr><td style="font-weight:bold;vertical-align:top;">web2py_original_uri</td><td style="vertical-align:top;">:</td><td><div>/RainforestRhythmn/default/index.html</div></td></tr><tr><td style="font-weight:bold;vertical-align:top;">web2py_path</td><td style="vertical-align:top;">:</td><td><div>/Users/dorme/Research/SAFE/Web2Py/web2py</div></td></tr><tr><td style="font-weight:bold;vertical-align:top;">web2py_version</td><td style="vertical-align:top;">:</td><td><div>2.13.2-stable+timestamp.2015.12.18.11.00.46</div></td></tr><tr><td style="font-weight:bold;vertical-align:top;">wsgi.errors</td><td style="vertical-align:top;">:</td><td><div>&lt;open file &#x27;&lt;stderr&gt;&#x27;, mode &#x27;w&#x27; at 0x1002971e0&gt;</div></td></tr><tr><td style="font-weight:bold;vertical-align:top;">wsgi.file_wrapper</td><td style="vertical-align:top;">:</td><td><div>&lt;class wsgiref.util.FileWrapper at 0x104311258&gt;</div></td></tr><tr><td style="font-weight:bold;vertical-align:top;">wsgi.input</td><td style="vertical-align:top;">:</td><td><div>&lt;socket._fileobject object at 0x10eff91d0&gt;</div></td></tr><tr><td style="font-weight:bold;vertical-align:top;">wsgi.multiprocess</td><td style="vertical-align:top;">:</td><td><div>False</div></td></tr><tr><td style="font-weight:bold;vertical-align:top;">wsgi.multithread</td><td style="vertical-align:top;">:</td><td><div>True</div></td></tr><tr><td style="font-weight:bold;vertical-align:top;">wsgi.run_once</td><td style="vertical-align:top;">:</td><td><div>False</div></td></tr><tr><td style="font-weight:bold;vertical-align:top;">wsgi.url_scheme</td><td style="vertical-align:top;">:</td><td><div>http</div></td></tr><tr><td style="font-weight:bold;vertical-align:top;">wsgi.version</td><td style="vertical-align:top;">:</td><td><div><table><tr><td><div>1</div></td></tr><tr><td><div>0</div></td></tr></table></div></td></tr><tr><td style="font-weight:bold;vertical-align:top;">wsgi_errors</td><td style="vertical-align:top;">:</td><td><div>&lt;open file &#x27;&lt;stderr&gt;&#x27;, mode &#x27;w&#x27; at 0x1002971e0&gt;</div></td></tr><tr><td style="font-weight:bold;vertical-align:top;">wsgi_file_wrapper</td><td style="vertical-align:top;">:</td><td><div>&lt;class wsgiref.util.FileWrapper at 0x104311258&gt;</div></td></tr><tr><td style="font-weight:bold;vertical-align:top;">wsgi_input</td><td style="vertical-align:top;">:</td><td><div>&lt;socket._fileobject object at 0x10eff91d0&gt;</div></td></tr><tr><td style="font-weight:bold;vertical-align:top;">wsgi_multiprocess</td><td style="vertical-align:top;">:</td><td><div>False</div></td></tr><tr><td style="font-weight:bold;vertical-align:top;">wsgi_multithread</td><td style="vertical-align:top;">:</td><td><div>True</div></td></tr><tr><td style="font-weight:bold;vertical-align:top;">wsgi_run_once</td><td style="vertical-align:top;">:</td><td><div>False</div></td></tr><tr><td style="font-weight:bold;vertical-align:top;">wsgi_url_scheme</td><td style="vertical-align:top;">:</td><td><div>http</div></td></tr><tr><td style="font-weight:bold;vertical-align:top;">wsgi_version</td><td style="vertical-align:top;">:</td><td><div><table><tr><td><div>1</div></td></tr><tr><td><div>0</div></td></tr></table></div></td></tr></table></div></td></tr><tr><td style="font-weight:bold;vertical-align:top;">extension</td><td style="vertical-align:top;">:</td><td><div>html</div></td></tr><tr><td style="font-weight:bold;vertical-align:top;">folder</td><td style="vertical-align:top;">:</td><td><div>/Users/dorme/Research/SAFE/Web2Py/web2py/applications/RainforestRhythmn/</div></td></tr><tr><td style="font-weight:bold;vertical-align:top;">function</td><td style="vertical-align:top;">:</td><td><div>index</div></td></tr><tr><td style="font-weight:bold;vertical-align:top;">global_settings</td><td style="vertical-align:top;">:</td><td><div><table><tr><td style="font-weight:bold;vertical-align:top;">app_folders</td><td style="vertical-align:top;">:</td><td><div>set([&#x27;/Users/dorme/Research/SAFE/Web2Py/web2py/applications/admin/&#x27;, &#x27;/Users/dorme/Research/SAFE/Web2Py/web2py/applications/RainforestRhythmn/&#x27;, &#x27;/Users/dorme/Research/SAFE/Web2Py/web2py/applications/Marking/&#x27;, &#x27;/Users/dorme/Research/SAFE/Web2Py/web2py/applications/RainforestRhythm/&#x27;, &#x27;/Users/dorme/Research/SAFE/Web2Py/web2py/applications/SAFE_web/&#x27;])</div></td></tr><tr><td style="font-weight:bold;vertical-align:top;">applications_parent</td><td style="vertical-align:top;">:</td><td><div>/Users/dorme/Research/SAFE/Web2Py/web2py</div></td></tr><tr><td style="font-weight:bold;vertical-align:top;">cmd_args</td><td style="vertical-align:top;">:</td><td><div><table></table></div></td></tr><tr><td style="font-weight:bold;vertical-align:top;">cmd_options</td><td style="vertical-align:top;">:</td><td><div>&lt;Values at 0x1043a04d0: {&#x27;verbose&#x27;: False, &#x27;ip&#x27;: &#x27;127.0.0.1&#x27;, &#x27;debuglevel&#x27;: 30, &#x27;with_scheduler&#x27;: False, &#x27;ips&#x27;: [&#x27;192.168.0.3&#x27;, &#x27;fe80::a65e:60ff:feeb:b729%en0&#x27;], &#x27;shutdown_timeout&#x27;: 5, &#x27;taskbar&#x27;: False, &#x27;with_coverage&#x27;: False, &#x27;scheduler_groups&#x27;: None, &#x27;port&#x27;: 8000, &#x27;maxthreads&#x27;: None, &#x27;softcron&#x27;: False, &#x27;server_name&#x27;: &#x27;Davids-MacBook-Pro.local&#x27;, &#x27;bpython&#x27;: False, &#x27;nogui&#x27;: False, &#x27;pid_filename&#x27;: &#x27;httpserver.pid&#x27;, &#x27;print_errors&#x27;: False, &#x27;extcron&#x27;: False, &#x27;runcron&#x27;: False, &#x27;run_system_tests&#x27;: False, &#x27;test&#x27;: None, &#x27;folder&#x27;: &#x27;/Users/dorme/Research/SAFE/Web2Py/web2py&#x27;, &#x27;config&#x27;: &#x27;&#x27;, &#x27;minthreads&#x27;: None, &#x27;shell&#x27;: None, &#x27;run&#x27;: &#x27;&#x27;, &#x27;log_filename&#x27;: &#x27;httpserver.log&#x27;, &#x27;profiler_dir&#x27;: None, &#x27;args&#x27;: [&#x27;&#x27;], &#x27;socket_timeout&#x27;: 5, &#x27;ssl_ca_certificate&#x27;: None, &#x27;scheduler&#x27;: None, &#x27;interfaces&#x27;: None, &#x27;ssl_private_key&#x27;: &#x27;&#x27;, &#x27;gae&#x27;: None, &#x27;password&#x27;: &#x27;&lt;ask&gt;&#x27;, &#x27;request_queue_size&#x27;: 5, &#x27;ssl_certificate&#x27;: &#x27;&#x27;, &#x27;cronjob&#x27;: False, &#x27;numthreads&#x27;: None, &#x27;quiet&#x27;: False, &#x27;import_models&#x27;: False, &#x27;timeout&#x27;: 10, &#x27;plain&#x27;: False, &#x27;nobanner&#x27;: False}&gt;</div></td></tr><tr><td style="font-weight:bold;vertical-align:top;">db_sessions</td><td style="vertical-align:top;">:</td><td><div>set([])</div></td></tr><tr><td style="font-weight:bold;vertical-align:top;">debugging</td><td style="vertical-align:top;">:</td><td><div>False</div></td></tr><tr><td style="font-weight:bold;vertical-align:top;">gluon_parent</td><td style="vertical-align:top;">:</td><td><div>/Users/dorme/Research/SAFE/Web2Py/web2py</div></td></tr><tr><td style="font-weight:bold;vertical-align:top;">is_jython</td><td style="vertical-align:top;">:</td><td><div>False</div></td></tr><tr><td style="font-weight:bold;vertical-align:top;">is_pypy</td><td style="vertical-align:top;">:</td><td><div>False</div></td></tr><tr><td style="font-weight:bold;vertical-align:top;">is_source</td><td style="vertical-align:top;">:</td><td><div>True</div></td></tr><tr><td style="font-weight:bold;vertical-align:top;">local_hosts</td><td style="vertical-align:top;">:</td><td><div><table><tr><td><div>fe80::a65e:60ff:feeb:b729%en0</div></td></tr><tr><td><div>::ffff:127.0.0.1</div></td></tr><tr><td><div>::1</div></td></tr><tr><td><div>192.168.0.3</div></td></tr><tr><td><div>Davids-MacBook-Pro.local</div></td></tr><tr><td><div>127.0.0.1</div></td></tr></table></div></td></tr><tr><td style="font-weight:bold;vertical-align:top;">web2py_version</td><td style="vertical-align:top;">:</td><td><div>2.13.2-stable+timestamp.2015.12.18.11.00.46</div></td></tr></table></div></td></tr><tr><td style="font-weight:bold;vertical-align:top;">is_https</td><td style="vertical-align:top;">:</td><td><div>False</div></td></tr><tr><td style="font-weight:bold;vertical-align:top;">is_local</td><td style="vertical-align:top;">:</td><td><div>True</div></td></tr><tr><td style="font-weight:bold;vertical-align:top;">is_restful</td><td style="vertical-align:top;">:</td><td><div>False</div></td></tr><tr><td style="font-weight:bold;vertical-align:top;">is_scheduler</td><td style="vertical-align:top;">:</td><td><div>False</div></td></tr><tr><td style="font-weight:bold;vertical-align:top;">is_shell</td><td style="vertical-align:top;">:</td><td><div>False</div></td></tr><tr><td style="font-weight:bold;vertical-align:top;">now</td><td style="vertical-align:top;">:</td><td><div>datetime.datetime(2017, 1, 11, 12, 57, 43, 712735)</div></td></tr><tr><td style="font-weight:bold;vertical-align:top;">url</td><td style="vertical-align:top;">:</td><td><div>/RainforestRhythmn/default/index.html</div></td></tr><tr><td style="font-weight:bold;vertical-align:top;">utcnow</td><td style="vertical-align:top;">:</td><td><div>datetime.datetime(2017, 1, 11, 12, 57, 43, 712742)</div></td></tr><tr><td style="font-weight:bold;vertical-align:top;">wsgi</td><td style="vertical-align:top;">:</td><td><div>&lt;gluon.main.LazyWSGI object at 0x110129910&gt;</div></td></tr></table></div>'
tRp56
sS'frames'
p57
(lp58
(dp59
S'file'
p60
S'/Users/dorme/Research/SAFE/Web2Py/web2py/gluon/main.py'
p61
sS'dump'
p62
(dp63
S'global serve_controller'
p64
S'<function serve_controller>'
p65
sS'session'
p66
S'<Storage {}>'
p67
sS'request'
p68
S"<Storage {'_vars': None, 'function': 'index', 'c.../Web2Py/web2py/applications/RainforestRhythmn/'}>"
p69
sS'response'
p70
S"<Storage {'body': <cStringIO.StringO object at 0...> at 0x110060320>, 'view': 'default/index.html'}>"
p71
ssS'lnum'
p72
I450
sS'lines'
p73
(dp74
I448
S'                    gluon.debug.dbg.do_debug(mainpyfile=request.folder)'
p75
sI449
S''
sI450
S'                serve_controller(request, response, session)'
p76
sI451
S''
sI452
S'            except HTTP, http_response:'
p77
sI453
S''
sI454
S'                if static_file:'
p78
sI445
S'                if global_settings.debugging and app != "admin":'
p79
sI446
S'                    import gluon.debug'
p80
sI447
S'                    # activate the debugger'
p81
ssS'call'
p82
S"(environ={'HTTP_ACCEPT': 'text/html,application/xhtml+xml,application/xml;q=0.9,image/webp,*/*;q=0.8', 'HTTP_ACCEPT_ENCODING': 'gzip, deflate, sdch, br', 'HTTP_ACCEPT_LANGUAGE': 'en-US,en;q=0.8', 'HTTP_CACHE_CONTROL': 'max-age=0', 'HTTP_CONNECTION': 'keep-alive', 'HTTP_COOKIE': 'session_id_rainforestrhythm=127.0.0.1-39040445-3...mn=127.0.0.1-d485acb4-0a9f-46a2-b08c-9b20afa17f73', 'HTTP_HOST': '127.0.0.1:8000', 'HTTP_UPGRADE_INSECURE_REQUESTS': '1', 'HTTP_USER_AGENT': 'Mozilla/5.0 (Macintosh; Intel Mac OS X 10_10_5) ...ML, like Gecko) Chrome/55.0.2883.95 Safari/537.36', 'PATH_INFO': '/RainforestRhythmn/default/index.html', ...}, responder=<function responder2>)"
p83
sS'func'
p84
S'wsgibase'
p85
sa(dp86
g60
S'/Users/dorme/Research/SAFE/Web2Py/web2py/gluon/main.py'
p87
sg62
(dp88
S'response._view_environment'
p89
S"{'A': <class 'gluon.html.A'>, 'ANY_OF': <class 'gluon.validators.ANY_OF'>, 'ASSIGNJS': <function ASSIGNJS>, 'AppConfig': <function AppConfig>, 'Auth': <class 'gluon.tools.Auth'>, 'B': <class 'gluon.html.B'>, 'BEAUTIFY': <class 'gluon.html.BEAUTIFY'>, 'BODY': <class 'gluon.html.BODY'>, 'BR': <class 'gluon.html.BR'>, 'BUTTON': <class 'gluon.html.BUTTON'>, ...}"
p90
sS'response'
p91
S"<Storage {'body': <cStringIO.StringO object at 0...> at 0x110060320>, 'view': 'default/index.html'}>"
p92
sS'global run_view_in'
p93
S'<function run_view_in>'
p94
ssg72
I192
sg73
(dp95
I192
S'        run_view_in(response._view_environment)'
p96
sI193
S'        page = response.body.getvalue()'
p97
sI194
S'    # logic to garbage collect after exec, not always, once every 100 requests'
p98
sI195
S'    global requests'
p99
sI196
S"    requests = ('requests' in globals()) and (requests + 1) % 100 or 0"
p100
sI187
S'    response._view_environment = copy.copy(environment)'
p101
sI188
S'    page = run_controller_in(request.controller, request.function, environment)'
p102
sI189
S'    if isinstance(page, dict):'
p103
sI190
S'        response._vars = page'
p104
sI191
S'        response._view_environment.update(page)'
p105
ssg82
S"(request=<Storage {'_vars': None, 'function': 'index', 'c.../Web2Py/web2py/applications/RainforestRhythmn/'}>, response=<Storage {'body': <cStringIO.StringO object at 0...> at 0x110060320>, 'view': 'default/index.html'}>, session=<Storage {}>)"
p106
sg84
S'serve_controller'
p107
sa(dp108
g60
S'/Users/dorme/Research/SAFE/Web2Py/web2py/gluon/compileapp.py'
p109
sg62
(dp110
S'environment'
p111
S"{'A': <class 'gluon.html.A'>, 'ANY_OF': <class 'gluon.validators.ANY_OF'>, 'ASSIGNJS': <function ASSIGNJS>, 'AppConfig': <function AppConfig>, 'Auth': <class 'gluon.tools.Auth'>, 'B': <class 'gluon.html.B'>, 'BEAUTIFY': <class 'gluon.html.BEAUTIFY'>, 'BODY': <class 'gluon.html.BODY'>, 'BR': <class 'gluon.html.BR'>, 'BUTTON': <class 'gluon.html.BUTTON'>, ...}"
p112
sS'context'
p113
S'undefined'
p114
ssg72
I714
sg73
(dp115
I709
S"                                            pjoin(folder, 'views'),"
p116
sI710
S'                                            context=environment), layer))'
p117
sI711
S'        else:'
p118
sI712
S'            ccode = parse_template(view,'
p119
sI713
S"                                   pjoin(folder, 'views'),"
p120
sI714
S'                                   context=environment)'
p121
sI715
S'        restricted(ccode, environment, layer)'
p122
sI716
S''
sI717
S''
sI718
S'def remove_compiled_application(folder):'
p123
ssg82
S"(environment={'A': <class 'gluon.html.A'>, 'ANY_OF': <class 'gluon.validators.ANY_OF'>, 'ASSIGNJS': <function ASSIGNJS>, 'AppConfig': <function AppConfig>, 'Auth': <class 'gluon.tools.Auth'>, 'B': <class 'gluon.html.B'>, 'BEAUTIFY': <class 'gluon.html.BEAUTIFY'>, 'BODY': <class 'gluon.html.BODY'>, 'BR': <class 'gluon.html.BR'>, 'BUTTON': <class 'gluon.html.BUTTON'>, ...})"
p124
sg84
S'run_view_in'
p125
sa(dp126
g60
S'/Users/dorme/Research/SAFE/Web2Py/web2py/gluon/template.py'
p127
sg62
(dp128
S'builtinstr'
p129
S"<type 'str'>"
p130
sS'global TemplateParser'
p131
S"<class 'gluon.template.TemplateParser'>"
p132
sS'delimiters'
p133
S"('{{', '}}')"
p134
sS'context'
p135
S"{'A': <class 'gluon.html.A'>, 'ANY_OF': <class 'gluon.validators.ANY_OF'>, 'ASSIGNJS': <function ASSIGNJS>, 'AppConfig': <function AppConfig>, 'Auth': <class 'gluon.tools.Auth'>, 'B': <class 'gluon.html.B'>, 'BEAUTIFY': <class 'gluon.html.BEAUTIFY'>, 'BODY': <class 'gluon.html.BODY'>, 'BR': <class 'gluon.html.BR'>, 'BUTTON': <class 'gluon.html.BUTTON'>, ...}"
p136
sS'text'
p137
S"'{{extend layout.html}}'"
p138
sS'path'
p139
S"'/Users/dorme/Research/SAFE/Web2Py/web2py/applications/RainforestRhythmn/views'"
p140
sS'lexers'
p141
g43
ssg72
I797
sg73
(dp142
I800
S'def get_parsed(text):'
p143
sI801
S'    """'
p144
sI792
S"            raise RestrictedError(filename, '', 'Unable to find the file')"
p145
sI793
S'    else:'
p146
sI794
S'        text = filename.read()'
p147
sI795
S''
sI796
S'    # Use the file contents to get a parsed template and return it.'
p148
sI797
S'    return str(TemplateParser(text, context=context, path=path, lexers=lexers, delimiters=delimiters))'
p149
sI798
S''
sI799
S''
ssg82
S"(filename='default/index.html', path='/Users/dorme/Research/SAFE/Web2Py/web2py/applications/RainforestRhythmn/views', context={'A': <class 'gluon.html.A'>, 'ANY_OF': <class 'gluon.validators.ANY_OF'>, 'ASSIGNJS': <function ASSIGNJS>, 'AppConfig': <function AppConfig>, 'Auth': <class 'gluon.tools.Auth'>, 'B': <class 'gluon.html.B'>, 'BEAUTIFY': <class 'gluon.html.BEAUTIFY'>, 'BODY': <class 'gluon.html.BODY'>, 'BR': <class 'gluon.html.BR'>, 'BUTTON': <class 'gluon.html.BUTTON'>, ...}, lexers={}, delimiters=('{{', '}}'))"
p150
sg84
S'parse_template'
p151
sa(dp152
g60
S'/Users/dorme/Research/SAFE/Web2Py/web2py/gluon/template.py'
p153
sg62
(dp154
S'text'
p155
S"'{{extend layout.html}}'"
p156
sS'self'
p157
S'<gluon.template.TemplateParser object>'
p158
sS'self.parse'
p159
S'<bound method TemplateParser.parse of <gluon.template.TemplateParser object>>'
p160
ssg72
I319
sg73
(dp161
I320
S''
sI321
S'    def to_string(self):'
p162
sI322
S'        """'
p163
sI323
S'        Returns the parsed template with correct indentation.'
p164
sI314
S'        # This variable will hold a reference to every block'
p165
sI315
S'        # that we come across in this template'
p166
sI316
S'        self.blocks = {}'
p167
sI317
S''
sI318
S'        # Begin parsing.'
p168
sI319
S'        self.parse(text)'
p169
ssg82
S"(self=<gluon.template.TemplateParser object>, text='{{extend layout.html}}', name='ParserContainer', context={'A': <class 'gluon.html.A'>, 'ANY_OF': <class 'gluon.validators.ANY_OF'>, 'ASSIGNJS': <function ASSIGNJS>, 'AppConfig': <function AppConfig>, 'Auth': <class 'gluon.tools.Auth'>, 'B': <class 'gluon.html.B'>, 'BEAUTIFY': <class 'gluon.html.BEAUTIFY'>, 'BODY': <class 'gluon.html.BODY'>, 'BR': <class 'gluon.html.BR'>, 'BUTTON': <class 'gluon.html.BUTTON'>, ...}, path='/Users/dorme/Research/SAFE/Web2Py/web2py/applications/RainforestRhythmn/views', writer='response.write', lexers={}, delimiters=('{{', '}}'), _super_nodes=[])"
p170
sg84
g48
sa(dp171
g60
S'/Users/dorme/Research/SAFE/Web2Py/web2py/gluon/template.py'
p172
sg62
(dp173
S'self'
p174
S'<gluon.template.TemplateParser object>'
p175
sS'extend'
p176
S"'layout.html'"
p177
sS'self.extend'
p178
S'<bound method TemplateParser.extend of <gluon.template.TemplateParser object>>'
p179
ssg72
I765
sg73
(dp180
I768
S''
sI769
S''
sI760
S'            # Sometimes I miss C-Style pointers... I want my asterisk...'
p181
sI761
S'            self.child_super_nodes.remove(node)'
p182
sI762
S''
sI763
S'        # If we need to extend a template.'
p183
sI764
S'        if extend:'
p184
sI765
S'            self.extend(extend)'
p185
sI766
S''
sI767
S'# We need this for integration with gluon'
p186
ssg82
S"(self=<gluon.template.TemplateParser object>, text='{{extend layout.html}}')"
p187
sg84
S'parse'
p188
sa(dp189
g60
S'/Users/dorme/Research/SAFE/Web2Py/web2py/gluon/template.py'
p190
sg62
(dp191
S'text'
p192
g114
sS'self'
p193
S'<gluon.template.TemplateParser object>'
p194
sS'self._get_file_text'
p195
S'<bound method TemplateParser._get_file_text of <gluon.template.TemplateParser object>>'
p196
sS'filename'
p197
S"'layout.html'"
p198
sS'builtintuple'
p199
S"<type 'tuple'>"
p200
sS'self.delimiters'
p201
S"('{{', '}}')"
p202
ssg72
I479
sg73
(dp203
I480
S''
sI481
S'        # Create out nodes list to send to the parent'
p204
sI482
S'        super_nodes = []'
p205
sI483
S'        # We want to include any non-handled nodes.'
p206
sI474
S'        """'
p207
sI475
S'        Extends `filename`. Anything not declared in a block defined by the'
p208
sI476
S'        parent will be placed in the parent templates `{{include}}` block.'
p209
sI477
S'        """'
p210
sI478
S'        # If no filename, create a dummy layout with only an {{include}}.'
p211
sI479
S"        text = self._get_file_text(filename) or '%sinclude%s' % tuple(self.delimiters)"
p212
ssg82
S"(self=<gluon.template.TemplateParser object>, filename='layout.html')"
p213
sg84
S'extend'
p214
sa(dp215
g60
S'/Users/dorme/Research/SAFE/Web2Py/web2py/gluon/template.py'
p216
sg62
(dp217
S'builtineval'
p218
S'<built-in function eval>'
p219
sS'context'
p220
S"{'A': <class 'gluon.html.A'>, 'ANY_OF': <class 'gluon.validators.ANY_OF'>, 'ASSIGNJS': <function ASSIGNJS>, 'AppConfig': <function AppConfig>, 'Auth': <class 'gluon.tools.Auth'>, 'B': <class 'gluon.html.B'>, 'BEAUTIFY': <class 'gluon.html.BEAUTIFY'>, 'BODY': <class 'gluon.html.BODY'>, 'BR': <class 'gluon.html.BR'>, 'BUTTON': <class 'gluon.html.BUTTON'>, ...}"
p221
sS'filename'
p222
S"'layout.html'"
p223
ssg72
I439
sg73
(dp224
I434
S'        if current and not "response" in context:'
p225
sI435
S'            context["response"] = getattr(current, \'response\', None)'
p226
sI436
S''
sI437
S'        # Get the filename; filename looks like ``"template.html"``.'
p227
sI438
S'        # We need to eval to remove the quotes and get the string type.'
p228
sI439
S'        filename = eval(filename, context)'
p229
sI440
S''
sI441
S'        # Allow empty filename for conditional extend and include directives.'
p230
sI442
S'        if not filename:'
p231
sI443
S"            return ''"
p232
ssg82
S"(self=<gluon.template.TemplateParser object>, filename='layout.html')"
p233
sg84
S'_get_file_text'
p234
sa(dp235
g60
S'/Users/dorme/Research/SAFE/Web2Py/web2py/<string>'
p236
sg62
(dp237
sg72
I1
sg73
(dp238
sg82
S'()'
p239
sg84
S'<module>'
p240
sasS'pyver'
p241
S'Python 2.7.11: /Library/Frameworks/Python.framework/Versions/2.7/Resources/Python.app/Contents/MacOS/Python (prefix: /Library/Frameworks/Python.framework/Versions/2.7)'
p242
sS'session'
p243
g55
(S's\x1a\x00\x00\x00<div><table></table></div>'
tRp244
sS'etype'
p245
S"<type 'exceptions.NameError'>"
p246
sS'date'
p247
S'Wed Jan 11 12:57:43 2017'
p248
sS'response'
p249
g55
(S's\xb0>\x00\x00<div><table><tr><td style="font-weight:bold;vertical-align:top;">body</td><td style="vertical-align:top;">:</td><td><div>&lt;cStringIO.StringO object at 0x110130030&gt;</div></td></tr><tr><td style="font-weight:bold;vertical-align:top;">cookies</td><td style="vertical-align:top;">:</td><td><div><table><tr><td style="font-weight:bold;vertical-align:top;">session_id_rainforestrhythmn</td><td style="vertical-align:top;">:</td><td><div>127.0.0.1-5c0f8df8-7a44-497c-b379-26bde1886e2c<table><tr><td style="font-weight:bold;vertical-align:top;">comment</td><td style="vertical-align:top;">:</td><td><div></div></td></tr><tr><td style="font-weight:bold;vertical-align:top;">domain</td><td style="vertical-align:top;">:</td><td><div></div></td></tr><tr><td style="font-weight:bold;vertical-align:top;">expires</td><td style="vertical-align:top;">:</td><td><div></div></td></tr><tr><td style="font-weight:bold;vertical-align:top;">httponly</td><td style="vertical-align:top;">:</td><td><div></div></td></tr><tr><td style="font-weight:bold;vertical-align:top;">max-age</td><td style="vertical-align:top;">:</td><td><div></div></td></tr><tr><td style="font-weight:bold;vertical-align:top;">path</td><td style="vertical-align:top;">:</td><td><div>/</div></td></tr><tr><td style="font-weight:bold;vertical-align:top;">secure</td><td style="vertical-align:top;">:</td><td><div></div></td></tr><tr><td style="font-weight:bold;vertical-align:top;">version</td><td style="vertical-align:top;">:</td><td><div></div></td></tr></table></div></td></tr></table></div></td></tr><tr><td style="font-weight:bold;vertical-align:top;">delimiters</td><td style="vertical-align:top;">:</td><td><div><table><tr><td><div>{{</div></td></tr><tr><td><div>}}</div></td></tr></table></div></td></tr><tr><td style="font-weight:bold;vertical-align:top;">files</td><td style="vertical-align:top;">:</td><td><div><table></table></div></td></tr><tr><td style="font-weight:bold;vertical-align:top;">flash</td><td style="vertical-align:top;">:</td><td><div>Hello World</div></td></tr><tr><td style="font-weight:bold;vertical-align:top;">form_label_separator</td><td style="vertical-align:top;">:</td><td><div></div></td></tr><tr><td style="font-weight:bold;vertical-align:top;">formstyle</td><td style="vertical-align:top;">:</td><td><div>bootstrap3_inline</div></td></tr><tr><td style="font-weight:bold;vertical-align:top;">generic_patterns</td><td style="vertical-align:top;">:</td><td><div><table><tr><td><div>*</div></td></tr></table></div></td></tr><tr><td style="font-weight:bold;vertical-align:top;">google_analytics_id</td><td style="vertical-align:top;">:</td><td><div>None</div></td></tr><tr><td style="font-weight:bold;vertical-align:top;">headers</td><td style="vertical-align:top;">:</td><td><div><table><tr><td style="font-weight:bold;vertical-align:top;">X-Powered-By</td><td style="vertical-align:top;">:</td><td><div>web2py</div></td></tr></table></div></td></tr><tr><td style="font-weight:bold;vertical-align:top;">logo</td><td style="vertical-align:top;">:</td><td><div><a class="navbar-brand" href="http://www.web2py.com/" id="web2py-logo"><b>web<span>2</span>py</b>&trade;&nbsp;</a></div></td></tr><tr><td style="font-weight:bold;vertical-align:top;">menu</td><td style="vertical-align:top;">:</td><td><div><table><tr><td><div><table><tr><td><div>Home</div></td></tr><tr><td><div>False</div></td></tr><tr><td><div>/RainforestRhythmn</div></td></tr><tr><td><div><table></table></div></td></tr></table></div></td></tr><tr><td><div><table><tr><td><div>My Sites</div></td></tr><tr><td><div>False</div></td></tr><tr><td><div>/admin/site</div></td></tr></table></div></td></tr><tr><td><div><table><tr><td><div>This App</div></td></tr><tr><td><div>False</div></td></tr><tr><td><div>#</div></td></tr><tr><td><div><table><tr><td><div><table><tr><td><div>Design</div></td></tr><tr><td><div>False</div></td></tr><tr><td><div>/admin/design/RainforestRhythmn</div></td></tr></table></div></td></tr><tr><td><div><li class="divider"></li></div></td></tr><tr><td><div><table><tr><td><div>Controller</div></td></tr><tr><td><div>False</div></td></tr><tr><td><div>/admin/edit/RainforestRhythmn/controllers/default.py</div></td></tr></table></div></td></tr><tr><td><div><table><tr><td><div>View</div></td></tr><tr><td><div>False</div></td></tr><tr><td><div>/admin/edit/RainforestRhythmn/views/default/index.html</div></td></tr></table></div></td></tr><tr><td><div><table><tr><td><div>DB Model</div></td></tr><tr><td><div>False</div></td></tr><tr><td><div>/admin/edit/RainforestRhythmn/models/db.py</div></td></tr></table></div></td></tr><tr><td><div><table><tr><td><div>Menu Model</div></td></tr><tr><td><div>False</div></td></tr><tr><td><div>/admin/edit/RainforestRhythmn/models/menu.py</div></td></tr></table></div></td></tr><tr><td><div><table><tr><td><div>Config.ini</div></td></tr><tr><td><div>False</div></td></tr><tr><td><div>/admin/edit/RainforestRhythmn/private/appconfig.ini</div></td></tr></table></div></td></tr><tr><td><div><table><tr><td><div>Layout</div></td></tr><tr><td><div>False</div></td></tr><tr><td><div>/admin/edit/RainforestRhythmn/views/layout.html</div></td></tr></table></div></td></tr><tr><td><div><table><tr><td><div>Stylesheet</div></td></tr><tr><td><div>False</div></td></tr><tr><td><div>/admin/edit/RainforestRhythmn/static/css/web2py-bootstrap3.css</div></td></tr></table></div></td></tr><tr><td><div><table><tr><td><div>Database</div></td></tr><tr><td><div>False</div></td></tr><tr><td><div>/RainforestRhythmn/appadmin</div></td></tr></table></div></td></tr><tr><td><div><table><tr><td><div>Errors</div></td></tr><tr><td><div>False</div></td></tr><tr><td><div>/admin/errors/RainforestRhythmn</div></td></tr></table></div></td></tr><tr><td><div><table><tr><td><div>About</div></td></tr><tr><td><div>False</div></td></tr><tr><td><div>/admin/about/RainforestRhythmn</div></td></tr></table></div></td></tr></table></div></td></tr></table></div></td></tr><tr><td><div><table><tr><td><div>web2py.com</div></td></tr><tr><td><div>False</div></td></tr><tr><td><div>#</div></td></tr><tr><td><div><table><tr><td><div><table><tr><td><div>Download</div></td></tr><tr><td><div>False</div></td></tr><tr><td><div>http://www.web2py.com/examples/default/download</div></td></tr></table></div></td></tr><tr><td><div><table><tr><td><div>Support</div></td></tr><tr><td><div>False</div></td></tr><tr><td><div>http://www.web2py.com/examples/default/support</div></td></tr></table></div></td></tr><tr><td><div><table><tr><td><div>Demo</div></td></tr><tr><td><div>False</div></td></tr><tr><td><div>http://web2py.com/demo_admin</div></td></tr></table></div></td></tr><tr><td><div><table><tr><td><div>Quick Examples</div></td></tr><tr><td><div>False</div></td></tr><tr><td><div>http://web2py.com/examples/default/examples</div></td></tr></table></div></td></tr><tr><td><div><table><tr><td><div>FAQ</div></td></tr><tr><td><div>False</div></td></tr><tr><td><div>http://web2py.com/AlterEgo</div></td></tr></table></div></td></tr><tr><td><div><table><tr><td><div>Videos</div></td></tr><tr><td><div>False</div></td></tr><tr><td><div>http://www.web2py.com/examples/default/videos/</div></td></tr></table></div></td></tr><tr><td><div><table><tr><td><div>Free Applications</div></td></tr><tr><td><div>False</div></td></tr><tr><td><div>http://web2py.com/appliances</div></td></tr></table></div></td></tr><tr><td><div><table><tr><td><div>Plugins</div></td></tr><tr><td><div>False</div></td></tr><tr><td><div>http://web2py.com/plugins</div></td></tr></table></div></td></tr><tr><td><div><table><tr><td><div>Recipes</div></td></tr><tr><td><div>False</div></td></tr><tr><td><div>http://web2pyslices.com/</div></td></tr></table></div></td></tr></table></div></td></tr></table></div></td></tr><tr><td><div><table><tr><td><div>Documentation</div></td></tr><tr><td><div>False</div></td></tr><tr><td><div>#</div></td></tr><tr><td><div><table><tr><td><div><table><tr><td><div>Online book</div></td></tr><tr><td><div>False</div></td></tr><tr><td><div>http://www.web2py.com/book</div></td></tr></table></div></td></tr><tr><td><div><li class="divider"></li></div></td></tr><tr><td><div><table><tr><td><div>Preface</div></td></tr><tr><td><div>False</div></td></tr><tr><td><div>http://www.web2py.com/book/default/chapter/00</div></td></tr></table></div></td></tr><tr><td><div><table><tr><td><div>Introduction</div></td></tr><tr><td><div>False</div></td></tr><tr><td><div>http://www.web2py.com/book/default/chapter/01</div></td></tr></table></div></td></tr><tr><td><div><table><tr><td><div>Python</div></td></tr><tr><td><div>False</div></td></tr><tr><td><div>http://www.web2py.com/book/default/chapter/02</div></td></tr></table></div></td></tr><tr><td><div><table><tr><td><div>Overview</div></td></tr><tr><td><div>False</div></td></tr><tr><td><div>http://www.web2py.com/book/default/chapter/03</div></td></tr></table></div></td></tr><tr><td><div><table><tr><td><div>The Core</div></td></tr><tr><td><div>False</div></td></tr><tr><td><div>http://www.web2py.com/book/default/chapter/04</div></td></tr></table></div></td></tr><tr><td><div><table><tr><td><div>The Views</div></td></tr><tr><td><div>False</div></td></tr><tr><td><div>http://www.web2py.com/book/default/chapter/05</div></td></tr></table></div></td></tr><tr><td><div><table><tr><td><div>Database</div></td></tr><tr><td><div>False</div></td></tr><tr><td><div>http://www.web2py.com/book/default/chapter/06</div></td></tr></table></div></td></tr><tr><td><div><table><tr><td><div>Forms and Validators</div></td></tr><tr><td><div>False</div></td></tr><tr><td><div>http://www.web2py.com/book/default/chapter/07</div></td></tr></table></div></td></tr><tr><td><div><table><tr><td><div>Email and SMS</div></td></tr><tr><td><div>False</div></td></tr><tr><td><div>http://www.web2py.com/book/default/chapter/08</div></td></tr></table></div></td></tr><tr><td><div><table><tr><td><div>Access Control</div></td></tr><tr><td><div>False</div></td></tr><tr><td><div>http://www.web2py.com/book/default/chapter/09</div></td></tr></table></div></td></tr><tr><td><div><table><tr><td><div>Services</div></td></tr><tr><td><div>False</div></td></tr><tr><td><div>http://www.web2py.com/book/default/chapter/10</div></td></tr></table></div></td></tr><tr><td><div><table><tr><td><div>Ajax Recipes</div></td></tr><tr><td><div>False</div></td></tr><tr><td><div>http://www.web2py.com/book/default/chapter/11</div></td></tr></table></div></td></tr><tr><td><div><table><tr><td><div>Components and Plugins</div></td></tr><tr><td><div>False</div></td></tr><tr><td><div>http://www.web2py.com/book/default/chapter/12</div></td></tr></table></div></td></tr><tr><td><div><table><tr><td><div>Deployment Recipes</div></td></tr><tr><td><div>False</div></td></tr><tr><td><div>http://www.web2py.com/book/default/chapter/13</div></td></tr></table></div></td></tr><tr><td><div><table><tr><td><div>Other Recipes</div></td></tr><tr><td><div>False</div></td></tr><tr><td><div>http://www.web2py.com/book/default/chapter/14</div></td></tr></table></div></td></tr><tr><td><div><table><tr><td><div>Helping web2py</div></td></tr><tr><td><div>False</div></td></tr><tr><td><div>http://www.web2py.com/book/default/chapter/15</div></td></tr></table></div></td></tr><tr><td><div><table><tr><td><div>Buy web2py\'s book</div></td></tr><tr><td><div>False</div></td></tr><tr><td><div>http://stores.lulu.com/web2py</div></td></tr></table></div></td></tr></table></div></td></tr></table></div></td></tr><tr><td><div><table><tr><td><div>Community</div></td></tr><tr><td><div>False</div></td></tr><tr><td><div>None</div></td></tr><tr><td><div><table><tr><td><div><table><tr><td><div>Groups</div></td></tr><tr><td><div>False</div></td></tr><tr><td><div>http://www.web2py.com/examples/default/usergroups</div></td></tr></table></div></td></tr><tr><td><div><table><tr><td><div>Twitter</div></td></tr><tr><td><div>False</div></td></tr><tr><td><div>http://twitter.com/web2py</div></td></tr></table></div></td></tr><tr><td><div><table><tr><td><div>Live Chat</div></td></tr><tr><td><div>False</div></td></tr><tr><td><div>http://webchat.freenode.net/?channels=web2py</div></td></tr></table></div></td></tr></table></div></td></tr></table></div></td></tr></table></div></td></tr><tr><td style="font-weight:bold;vertical-align:top;">meta</td><td style="vertical-align:top;">:</td><td><div><table><tr><td style="font-weight:bold;vertical-align:top;">author</td><td style="vertical-align:top;">:</td><td><div>Your Name &lt;you@example.com&gt;</div></td></tr><tr><td style="font-weight:bold;vertical-align:top;">description</td><td style="vertical-align:top;">:</td><td><div>a cool new app</div></td></tr><tr><td style="font-weight:bold;vertical-align:top;">generator</td><td style="vertical-align:top;">:</td><td><div>Web2py Web Framework</div></td></tr><tr><td style="font-weight:bold;vertical-align:top;">keywords</td><td style="vertical-align:top;">:</td><td><div>web2py, python, framework</div></td></tr></table></div></td></tr><tr><td style="font-weight:bold;vertical-align:top;">models_to_run</td><td style="vertical-align:top;">:</td><td><div><table><tr><td><div>^\\w+\\.py$</div></td></tr><tr><td><div>^default/\\w+\\.py$</div></td></tr><tr><td><div>^default/index/\\w+\\.py$</div></td></tr></table></div></td></tr><tr><td style="font-weight:bold;vertical-align:top;">postprocessing</td><td style="vertical-align:top;">:</td><td><div><table></table></div></td></tr><tr><td style="font-weight:bold;vertical-align:top;">session_client</td><td style="vertical-align:top;">:</td><td><div>127.0.0.1</div></td></tr><tr><td style="font-weight:bold;vertical-align:top;">session_cookie_compression_level</td><td style="vertical-align:top;">:</td><td><div>None</div></td></tr><tr><td style="font-weight:bold;vertical-align:top;">session_cookie_expires</td><td style="vertical-align:top;">:</td><td><div>None</div></td></tr><tr><td style="font-weight:bold;vertical-align:top;">session_cookie_key</td><td style="vertical-align:top;">:</td><td><div>None</div></td></tr><tr><td style="font-weight:bold;vertical-align:top;">session_data_name</td><td style="vertical-align:top;">:</td><td><div>session_data_rainforestrhythmn</div></td></tr><tr><td style="font-weight:bold;vertical-align:top;">session_file</td><td style="vertical-align:top;">:</td><td><div>None</div></td></tr><tr><td style="font-weight:bold;vertical-align:top;">session_filename</td><td style="vertical-align:top;">:</td><td><div>/Users/dorme/Research/SAFE/Web2Py/web2py/applications/RainforestRhythmn/sessions/127.0.0.1-5c0f8df8-7a44-497c-b379-26bde1886e2c</div></td></tr><tr><td style="font-weight:bold;vertical-align:top;">session_hash</td><td style="vertical-align:top;">:</td><td><div>c0762cbf4baf7f9af97c051e7fcb8083</div></td></tr><tr><td style="font-weight:bold;vertical-align:top;">session_id</td><td style="vertical-align:top;">:</td><td><div>127.0.0.1-5c0f8df8-7a44-497c-b379-26bde1886e2c</div></td></tr><tr><td style="font-weight:bold;vertical-align:top;">session_id_name</td><td style="vertical-align:top;">:</td><td><div>session_id_rainforestrhythmn</div></td></tr><tr><td style="font-weight:bold;vertical-align:top;">session_masterapp</td><td style="vertical-align:top;">:</td><td><div>RainforestRhythmn</div></td></tr><tr><td style="font-weight:bold;vertical-align:top;">session_new</td><td style="vertical-align:top;">:</td><td><div>True</div></td></tr><tr><td style="font-weight:bold;vertical-align:top;">session_storage_type</td><td style="vertical-align:top;">:</td><td><div>file</div></td></tr><tr><td style="font-weight:bold;vertical-align:top;">status</td><td style="vertical-align:top;">:</td><td><div>200</div></td></tr><tr><td style="font-weight:bold;vertical-align:top;">subtitle</td><td style="vertical-align:top;">:</td><td><div></div></td></tr><tr><td style="font-weight:bold;vertical-align:top;">title</td><td style="vertical-align:top;">:</td><td><div>Rainforestrhythmn</div></td></tr><tr><td style="font-weight:bold;vertical-align:top;">view</td><td style="vertical-align:top;">:</td><td><div>default/index.html</div></td></tr></table></div>'
tRp250
sS'locals'
p251
(dp252
S'Service'
p253
S"<class 'gluon.tools.Service'>"
p254
sS'OBJECT'
p255
S"<class 'gluon.html.OBJECT'>"
p256
sS'SQLDB'
p257
S"<class 'pydal.base.DAL'>"
p258
sg243
S'<Storage {}>'
p259
sS'LINK'
p260
S"<class 'gluon.html.LINK'>"
p261
sS'BR'
p262
S"<class 'gluon.html.BR'>"
p263
sS'local_import'
p264
S'<function <lambda>>'
p265
sS'OPTGROUP'
p266
S"<class 'gluon.html.OPTGROUP'>"
p267
sS'__package__'
p268
S'None'
p269
sS'PRE'
p270
S"<class 'gluon.html.PRE'>"
p271
sS'IS_INT_IN_RANGE'
p272
S"<class 'gluon.validators.IS_INT_IN_RANGE'>"
p273
sS'IS_LOWER'
p274
S"<class 'gluon.validators.IS_LOWER'>"
p275
sS'IS_STRONG'
p276
S"<class 'gluon.validators.IS_STRONG'>"
p277
sS'cache'
p278
S'<gluon.cache.Cache object>'
p279
sS'IS_IN_DB'
p280
S"<class 'gluon.validators.IS_IN_DB'>"
p281
sS'TAG'
p282
S'<gluon.html.__TAG__ object>'
p283
sS'SQLField'
p284
S"<class 'pydal.objects.Field'>"
p285
sS'mail'
p286
S'<gluon.tools.Mail object>'
p287
sS'BODY'
p288
S"<class 'gluon.html.BODY'>"
p289
sS'IS_DATE_IN_RANGE'
p290
S"<class 'gluon.validators.IS_DATE_IN_RANGE'>"
p291
sS'IFRAME'
p292
S"<class 'gluon.html.IFRAME'>"
p293
sS'URL'
p294
S'<function URL>'
p295
sS'__file__'
p296
S"'/Users/dorme/Research/SAFE/Web2Py/web2py/applications/RainforestRhythmn/models/rr.py'"
p297
sS'db'
p298
S'<DAL uri="sqlite://storage.sqlite">'
p299
sS'auth'
p300
S'<gluon.tools.Auth object>'
p301
sS'P'
S"<class 'gluon.html.P'>"
p302
sS'TFOOT'
p303
S"<class 'gluon.html.TFOOT'>"
p304
sS'XHTML'
p305
S"<class 'gluon.html.XHTML'>"
p306
sS'ON'
p307
S'True'
p308
sS'OL'
p309
S"<class 'gluon.html.OL'>"
p310
sS'TEXTAREA'
p311
S"<class 'gluon.html.TEXTAREA'>"
p312
sS'MENU'
p313
S"<class 'gluon.html.MENU'>"
p314
sS'IS_IMAGE'
p315
S"<class 'gluon.validators.IS_IMAGE'>"
p316
sS'EM'
p317
S"<class 'gluon.html.EM'>"
p318
sS'CODE'
p319
S"<class 'gluon.html.CODE'>"
p320
sS'HTTP'
p321
S"<class 'gluon.http.HTTP'>"
p322
sS'HR'
p323
S"<class 'gluon.html.HR'>"
p324
sS'IS_DATETIME'
p325
S"<class 'gluon.validators.IS_DATETIME'>"
p326
sS'STYLE'
p327
S"<class 'gluon.html.STYLE'>"
p328
sS'LABEL'
p329
S"<class 'gluon.html.LABEL'>"
p330
sS'CLEANUP'
p331
S"<class 'gluon.validators.CLEANUP'>"
p332
sS'plugins'
p333
S'<gluon.tools.PluginManager object>'
p334
sS'SELECT'
p335
S"<class 'gluon.html.SELECT'>"
p336
sS'CENTER'
p337
S"<class 'gluon.html.CENTER'>"
p338
sS'Auth'
p339
S"<class 'gluon.tools.Auth'>"
p340
sS'DEVELOPMENT_MENU'
p341
g308
sS'__builtins__'
p342
S"{'ArithmeticError': <type 'exceptions.ArithmeticError'>, 'AssertionError': <type 'exceptions.AssertionError'>, 'AttributeError': <type 'exceptions.AttributeError'>, 'BaseException': <type 'exceptions.BaseException'>, 'BufferError': <type 'exceptions.BufferError'>, 'BytesWarning': <type 'exceptions.BytesWarning'>, 'DeprecationWarning': <type 'exceptions.DeprecationWarning'>, 'EOFError': <type 'exceptions.EOFError'>, 'Ellipsis': Ellipsis, 'EnvironmentError': <type 'exceptions.EnvironmentError'>, ...}"
p343
sS'HTML'
p344
S"<class 'gluon.html.HTML'>"
p345
sS'SQLFORM'
p346
S"<class 'gluon.sqlhtml.SQLFORM'>"
p347
sS'LOAD'
p348
S'<function LOAD>'
p349
sS'redirect'
p350
S'<function redirect>'
p351
sS'FIELDSET'
p352
S"<class 'gluon.html.FIELDSET'>"
p353
sS'IS_EQUAL_TO'
p354
S"<class 'gluon.validators.IS_EQUAL_TO'>"
p355
sS'embed64'
p356
S'<function embed64>'
p357
sS'IS_LIST_OF'
p358
S"<class 'gluon.validators.IS_LIST_OF'>"
p359
sS'INPUT'
p360
S"<class 'gluon.html.INPUT'>"
p361
sS'EMBED'
p362
S"<class 'gluon.html.EMBED'>"
p363
sS'_'
S'<function _>'
p364
sS'myconf'
p365
S"{'forms': {'formstyle': 'bootstrap3_inline', 'se...'you@gmail.com', 'server': 'smtp.gmail.com:587'}}"
p366
sS'H2'
p367
S"<class 'gluon.html.H2'>"
p368
sS'H3'
p369
S"<class 'gluon.html.H3'>"
p370
sS'AppConfig'
p371
S'<function AppConfig>'
p372
sS'H1'
p373
S"<class 'gluon.html.H1'>"
p374
sS'H6'
p375
S"<class 'gluon.html.H6'>"
p376
sS'H4'
p377
S"<class 'gluon.html.H4'>"
p378
sS'H5'
p379
S"<class 'gluon.html.H5'>"
p380
sS'UL'
p381
S"<class 'gluon.html.UL'>"
p382
sS'IS_UPPER'
p383
S"<class 'gluon.validators.IS_UPPER'>"
p384
sS'xmlescape'
p385
S'<function xmlescape>'
p386
sS'IS_TIME'
p387
S"<class 'gluon.validators.IS_TIME'>"
p388
sS'OPTION'
p389
S"<class 'gluon.html.OPTION'>"
p390
sS'TITLE'
p391
S"<class 'gluon.html.TITLE'>"
p392
sS'CRYPT'
p393
S"<class 'gluon.validators.CRYPT'>"
p394
sS'IS_EMPTY_OR'
p395
S"<class 'gluon.validators.IS_EMPTY_OR'>"
p396
sS'MARKMIN'
p397
S"<class 'gluon.html.MARKMIN'>"
p398
sS'__name__'
p399
S"'__restricted__'"
p400
sS'message'
p401
S"<lazyT 'Welcome to web2py!'>"
p402
sS'STRONG'
p403
S"<class 'gluon.html.STRONG'>"
p404
sS'COL'
p405
S"<class 'gluon.html.COL'>"
p406
sS'service'
p407
S'<gluon.tools.Service object>'
p408
sS'SCRIPT'
p409
S"<class 'gluon.html.SCRIPT'>"
p410
sS'TABLE'
p411
S"<class 'gluon.html.TABLE'>"
p412
sS'IS_IPV4'
p413
S"<class 'gluon.validators.IS_IPV4'>"
p414
sS'IS_LENGTH'
p415
S"<class 'gluon.validators.IS_LENGTH'>"
p416
sS'IS_IPV6'
p417
S"<class 'gluon.validators.IS_IPV6'>"
p418
sS'XML'
p419
S"<class 'gluon.html.XML'>"
p420
sS'B'
S"<class 'gluon.html.B'>"
p421
sS'IMG'
p422
S"<class 'gluon.html.IMG'>"
p423
sS'SQLTABLE'
p424
S"<class 'gluon.sqlhtml.SQLTABLE'>"
p425
sS'IS_MATCH'
p426
S"<class 'gluon.validators.IS_MATCH'>"
p427
sS'IS_ALPHANUMERIC'
p428
S"<class 'gluon.validators.IS_ALPHANUMERIC'>"
p429
sS'SPAN'
p430
S"<class 'gluon.html.SPAN'>"
p431
sS'IS_JSON'
p432
S"<class 'gluon.validators.IS_JSON'>"
p433
sS'IS_IPADDRESS'
p434
S"<class 'gluon.validators.IS_IPADDRESS'>"
p435
sS'IS_SLUG'
p436
S"<class 'gluon.validators.IS_SLUG'>"
p437
sS'BEAUTIFY'
p438
S"<class 'gluon.html.BEAUTIFY'>"
p439
sS'META'
p440
S"<class 'gluon.html.META'>"
p441
sS'BUTTON'
p442
S"<class 'gluon.html.BUTTON'>"
p443
sS'IS_DATE'
p444
S"<class 'gluon.validators.IS_DATE'>"
p445
sS'IS_EMAIL'
p446
S"<class 'gluon.validators.IS_EMAIL'>"
p447
sS'IS_NOT_EMPTY'
p448
S"<class 'gluon.validators.IS_NOT_EMPTY'>"
p449
sS'IS_FLOAT_IN_RANGE'
p450
S"<class 'gluon.validators.IS_FLOAT_IN_RANGE'>"
p451
sS'TBODY'
p452
S"<class 'gluon.html.TBODY'>"
p453
sS'CAT'
p454
S"<class 'gluon.html.CAT'>"
p455
sS'Field'
p456
S"<class 'pydal.objects.Field'>"
p457
sS'IS_LIST_OF_EMAILS'
p458
S"<class 'gluon.validators.IS_LIST_OF_EMAILS'>"
p459
sS'DIV'
p460
S"<class 'gluon.html.DIV'>"
p461
sS'LEGEND'
p462
S"<class 'gluon.html.LEGEND'>"
p463
sS'COLGROUP'
p464
S"<class 'gluon.html.COLGROUP'>"
p465
sS'DAL'
p466
S"<class 'pydal.base.DAL'>"
p467
sS'ASSIGNJS'
p468
S'<function ASSIGNJS>'
p469
sS'TR'
p470
S"<class 'gluon.html.TR'>"
p471
sS'LI'
p472
S"<class 'gluon.html.LI'>"
p473
sS'TH'
p474
S"<class 'gluon.html.TH'>"
p475
sS'TD'
p476
S"<class 'gluon.html.TD'>"
p477
sS'PluginManager'
p478
S"<class 'gluon.tools.PluginManager'>"
p479
sS'IS_URL'
p480
S"<class 'gluon.validators.IS_URL'>"
p481
sS'A'
S"<class 'gluon.html.A'>"
p482
sS'HEAD'
p483
S"<class 'gluon.html.HEAD'>"
p484
sS'IS_DATETIME_IN_RANGE'
p485
S"<class 'gluon.validators.IS_DATETIME_IN_RANGE'>"
p486
sS'FORM'
p487
S"<class 'gluon.html.FORM'>"
p488
sS'I'
S"<class 'gluon.html.I'>"
p489
sS'IS_NOT_IN_DB'
p490
S"<class 'gluon.validators.IS_NOT_IN_DB'>"
p491
sg249
S"<Storage {'body': <cStringIO.StringO object at 0...> at 0x110060320>, 'view': 'default/index.html'}>"
p492
sS'THEAD'
p493
S"<class 'gluon.html.THEAD'>"
p494
sS'ANY_OF'
p495
S"<class 'gluon.validators.ANY_OF'>"
p496
sS'IS_NULL_OR'
p497
S"<class 'gluon.validators.IS_EMPTY_OR'>"
p498
sg54
S"<Storage {'_vars': None, 'function': 'index', 'c.../Web2Py/web2py/applications/RainforestRhythmn/'}>"
p499
sS'IS_EXPR'
p500
S"<class 'gluon.validators.IS_EXPR'>"
p501
sS'T'
S'<gluon.languages.translator object>'
p502
sS'IS_IN_SET'
p503
S"<class 'gluon.validators.IS_IN_SET'>"
p504
sS'IS_UPLOAD_FILENAME'
p505
S"<class 'gluon.validators.IS_UPLOAD_FILENAME'>"
p506
sS'TT'
p507
S"<class 'gluon.html.TT'>"
p508
sS'IS_DECIMAL_IN_RANGE'
p509
S"<class 'gluon.validators.IS_DECIMAL_IN_RANGE'>"
p510
sssS'traceback'
p511
S'Traceback (most recent call last):\n  File "/Users/dorme/Research/SAFE/Web2Py/web2py/gluon/main.py", line 450, in wsgibase\n    serve_controller(request, response, session)\n  File "/Users/dorme/Research/SAFE/Web2Py/web2py/gluon/main.py", line 192, in serve_controller\n    run_view_in(response._view_environment)\n  File "/Users/dorme/Research/SAFE/Web2Py/web2py/gluon/compileapp.py", line 714, in run_view_in\n    context=environment)\n  File "/Users/dorme/Research/SAFE/Web2Py/web2py/gluon/template.py", line 797, in parse_template\n    return str(TemplateParser(text, context=context, path=path, lexers=lexers, delimiters=delimiters))\n  File "/Users/dorme/Research/SAFE/Web2Py/web2py/gluon/template.py", line 319, in __init__\n    self.parse(text)\n  File "/Users/dorme/Research/SAFE/Web2Py/web2py/gluon/template.py", line 765, in parse\n    self.extend(extend)\n  File "/Users/dorme/Research/SAFE/Web2Py/web2py/gluon/template.py", line 479, in extend\n    text = self._get_file_text(filename) or \'%sinclude%s\' % tuple(self.delimiters)\n  File "/Users/dorme/Research/SAFE/Web2Py/web2py/gluon/template.py", line 439, in _get_file_text\n    filename = eval(filename, context)\n  File "<string>", line 1, in <module>\nNameError: name \'layout\' is not defined\n'
p512
s.