(dp1
S'output'
p2
S"<type 'exceptions.TypeError'> unhashable type: 'dict'"
p3
sS'layer'
p4
S'/Users/dorme/Research/SAFE/Web2Py/web2py/applications/Rainforest_Rhythm/controllers/default.py'
p5
sS'code'
p6
S'# -*- coding: utf-8 -*-\n# this file is released under public domain and you can use without limitations\n\nfrom gluon.serializers import json\nimport itertools\nimport math\nfrom pydub import AudioSegment\nimport os\n\n#########################################################################\n## This is a sample controller\n## - index is the default action of any application\n## - user is required for authentication and authorization\n## - download is for downloading files uploaded in the db (does streaming)\n#########################################################################\n\ndef index():\n\t"""\n\texample action using the internationalization operator T and flash\n\trendered by views/default/index.html or views/generic.html\n\n\tif you need a simple wiki simply replace the two lines below with:\n\treturn auth.wiki()\n\t"""\n\tresponse.flash = T("Hello World")\n\treturn dict(message=T(\'Welcome to web2py!\'))\n\n\ndef player():\n\t\n\t"""\n\tExposes the wavesurfer player, loading a particular audio file \n\tand the calls associated with it\n\t"""\n\t\n\tif request.vars[\'audio_id\']:\n\t\trecord = db.audio(request.vars[\'audio_id\'])\n\telse:\n\t\trecord = db.audio(1)\n\t\n\tif record.previous_part:\n\t\tbackward_link = A(I(_class=\'glyphicon glyphicon-chevron-left\'),\n\t\t\t\t\t\t  _href=URL(\'default\',\'player\', vars={\'audio_id\': record.previous_part}))\n\telse:\n\t\tbackward_link = I()\n\t\n\tif record.next_part:\n\t\tforward_link = A(I(_class=\'glyphicon glyphicon-chevron-right\'),\n\t\t\t\t\t\t  _href=URL(\'default\',\'player\', args={\'audio_id\':record.next_part}))\n\telse:\n\t\tforward_link = I()\n\t\n\t# get the calls for this audio...\n\trows = db(db.calls.audio_id == record.id).select()\n\t\n\t# Build the collapsible list items showing each region, region controls,\n\t# and any associated ID.\n\t\n\t\n\t# The general information to display on this page is the call, call info and then\n\t# each id (if any) and the number of votes and weighted average score for each id. \n\t\n\t# The call info is available from the row object, and then I\'ve used the\n\t# DB backend here to get all the identifications for this audio id and preprocess\n\t# the components of the weighting. The SQL is:\n\t#\n\t# select i.call_id, i.id, t.common_name,  count(s.score), \n\t#\t\t sum(s.score * u.id_skill), sum(u.id_skill) \n\t#\tfrom audio a join calls c on a.id == c.audio_id \n\t#\t\tjoin identifications i on c.id == i.call_id \n\t#\t\tjoin taxa t on t.id == i.taxon_id \n\t#\t\tleft outer join scores s on s.identification_id == i.id \n\t#\t\tleft outer join auth_user u on u.id == s.user_id \n\t#\twhere a.id == 1\n\t#\tgroup by i.id;\n\t\n\tthis_audio = db((db.calls.audio_id == record.id) & \n\t\t\t\t\t(db.identifications.call_id == db.calls.id) &\n\t\t\t\t\t(db.identifications.taxon_id == db.taxa.id))\n\t\n\tident_info = this_audio.select(db.identifications.id,\n\t\t\t\t\t\t\t\t   db.identifications.call_id,\n\t\t\t\t\t\t\t\t   db.taxa.ALL,\n\t\t\t\t\t\t\t\t   db.scores.score.count().with_alias(\'count\'), \n\t\t\t\t\t\t\t\t   (db.scores.score * db.auth_user.id_skill).sum().with_alias(\'num\'),\n\t\t\t\t\t\t\t\t   db.auth_user.id_skill.sum().with_alias(\'denom\'),\n\t\t\t\t\t\t   left = [db.scores.on(db.identifications.id == db.scores.identification_id),\n\t\t\t\t\t\t\t\t   db.auth_user.on(db.auth_user.id == db.scores.user_id)],\n\t\t\t\t\t\t   groupby = db.identifications.id,\n\t\t\t\t\t\t   orderby = db.identifications.call_id)\n\t\n\t# build that data into a dictionary of identifications by call_id \n\t# NB: This groupby relies on DB query above ordering by the key!\n\tident_dict = {k: list(g) for k, g in itertools.groupby(ident_info, lambda x: x.identifications.call_id)}\n\t\n\titems = []\n\tfor r in rows:\n\t\t# call header row, showing play and link to call page.\n\t\tregion_info = LI(A(SPAN(_class="glyphicon glyphicon-list"),\n\t\t\t\t\t\t   _class="btn btn-warning btn-xs", _href=URL(\'calls\', vars={\'call_id\': r.id})),\n\t\t\t\t\t\t XML(\'&nbsp\'),\n\t\t\t\t\t\t TAG.button(SPAN(_class="glyphicon glyphicon-play"),\n\t\t\t\t\t\t\t\t\t_id=\'play_call_\' + str(r.id), _class="btn btn-warning btn-xs"),\n\t\t\t\t\t\t XML(\'&nbsp\'),\n\t\t\t\t\t\t # B(\'Call \' + str(r.id) + \': \'), \n\t\t\t\t\t\t I(\' {} seconds\'.format(str(round(r.end_time - r.start_time, 2)))),\n\t\t\t\t\t\t   _class=\'list-group-item call_info\',\n\t\t\t\t\t\t   _onmouseover=\'highlight_call(this)\',\n\t\t\t\t\t\t   _onmouseout=\'dehighlight_call(this)\',\n\t\t\t\t\t\t   _id = \'highlight_\' + str(r.id))\n\t\t\n\t\t#  compile identification information for this call\n\t\tif r.id in ident_dict:\n\t\t\tfor c in ident_dict[r.id]:\n\t\t\t\t# info to style the average id score bar, which is 114 pixels long\n\t\t\t\t# with 7px round caps, so has a 0-100 for showing average scores 1-4\n\t\t\t\tmn_score = ((c.num/c.denom)+3) * (100/6)\n\t\t\t\tbar_px = 7 + mn_score\n\t\t\t\t# stolen code to get a nice RAG scale\n\t\t\t\t# http://stackoverflow.com/questions/340209/generate-colors-between-red-and-green-for-a-power-meter\n\t\t\t\tred = int(255 * math.sqrt(math.cos(mn_score * math.pi / 200)))\n\t\t\t\tgreen = int(255 * math.sqrt(math.sin(mn_score * math.pi / 200)))\n\t\t\t\tthis_style = "width: {}px; background: rgb({},{},0);".format(bar_px, red, green)\n\t\t\t\tcall_info =\t LI(DIV(DIV(c.taxa.common_name, \' (\',\n\t\t\t\t\t\t\t\t\t\tI(c.taxa.genus, \' \', c.taxa.species), \')\',\n\t\t\t\t\t\t\t\t\t\t_class=\'col-sm-6\'),\n\t\t\t\t\t\t\t\t\tDIV(DIV(DIV(_class="progress-bar progress-bar-success",\n\t\t\t\t\t\t\t\t\t\t\t\t_role="progressbar", _style=this_style),\n\t\t\t\t\t\t\t\t\t\t\t_class="progress id_quality"),\n\t\t\t\t\t\t\t\t\t\t_class="col-sm-4 id_qual_div"),\n\t\t\t\t\t\t\t\t\tDIV(SPAN(c.count, _class="badge"), _class="col-sm-2"),\n\t\t\t\t\t\t\t\t\t_class=\'row\'),\n\t\t\t\t\t\t\t\t_class=\'list-group-item small call_id\')\n\t\t\t\tregion_info = CAT(region_info, call_info)\n\t\telse:\n\t\t\tno_id = LI("No identification proposed", _class=\'list-group-item small call_id\')\n\t\t\tregion_info = CAT(region_info, no_id)\n\t\t\n\t\titems.append(DIV(region_info, _class=\'collapse\', _id=\'call\' + str(r.id)))\n\t\n\tlist_group = DIV(*items, _class="panel list-group")\n\t\n\t# ... update names to match the wavesurfer_js region properties\n\t# - start is a reserved word in the web2py framework so can\'t be used directly\n\t# - add an attribute to identify new regions from existing ones.\n\tfor r in rows:\n\t\tr.update({\'start\': r[\'start_time\'], \'end\': r[\'end_time\'], \'attributes\':{\'type\': \'fixed\'}})\n\t\n\t# serialise as JSON to pass to the javascript that loads the regions on the wavesurfer\n\trows = json(rows)\n\t\n\t# pass summary data of identifications to allow javascript \n\t# to load ids for a selected call on the client side\n\t\n\treturn dict(record=record, backward_link=backward_link, list_group=list_group,\n\t\t\t\tforward_link=forward_link, rows=rows)\n\n\ndef _seconds_to_time(val):\n\t\n\tm = int(val // 60)\n\ts = int(val % 60)\n\tts = int(val % 1 * 10)\n\t\n\treturn \'{}:{}.{}\'.format(m,s,ts)\n\n\n@auth.requires_login()\ndef create_call():\n\t\n\taudio_id = request.vars[\'audio_id\']\n\tsource_file = db.audio[audio_id].filename\n\tsource_path = os.path.join(request.folder, \'static\', \'audio\', source_file)\n\tstart = float(request.vars[\'start\'])\n\tend = float(request.vars[\'end\'])\n\t\n\tcall_id = _extract_call_and_add_to_db(source_path, audio_id, start, end, auth.user.id)\n\t\n\treturn call_id \n\n\ndef calls():\n\t\n\t# retrieve the call id and audio\n\tif request.vars[\'call_id\']:\n\t\n\t\trecord = db.calls(request.vars[\'call_id\'])\n\t\taudio = db.audio(record.audio_id)\n\t\n\telse:\n\t\t# TODO - where to redirect to\n\t\tredirect(\'index\')\n\t\n\t# get the identifications for this call\n\tidents_query = db((db.identifications.call_id == record.id) &\n\t\t\t\t\t  (db.identifications.taxon_id == db.taxa.id) &\n\t\t\t\t\t  (db.identifications.user_id == db.auth_user.id))\n\t\n\tident_rows = idents_query.select(db.identifications.id,\n\t\t\t\t\t\t\t\t\t db.identifications.created_on,\n\t\t\t\t\t\t\t\t\t db.taxa.common_name,\n\t\t\t\t\t\t\t\t\t db.taxa.genus,\n\t\t\t\t\t\t\t\t\t db.taxa.species,\n\t\t\t\t\t\t\t\t\t db.taxa.subspecies,\n\t\t\t\t\t\t\t\t\t db.taxa.thumbnail,\n\t\t\t\t\t\t\t\t\t db.auth_user.first_name,\n\t\t\t\t\t\t\t\t\t db.auth_user.last_name)\n\t\n\t# get the scores for this call\n\tscores_query = db((db.identifications.call_id == record.id))\n\t\n\tscores_rows = scores_query.select(db.identifications.id,\n\t\t\t\t\t\t\t\t\t  db.scores.score, \n\t\t\t\t\t\t\t\t\t  db.auth_user.id_skill,\n\t\t\t\t\t\t\t\t\t  db.auth_user.first_name,\n\t\t\t\t\t\t\t\t\t  db.auth_user.last_name,\n\t\t\t\t\t\t\t\t\t  left = [db.scores.on(db.identifications.id == db.scores.identification_id),\n\t\t\t\t\t\t\t\t\t\t\t  db.auth_user.on(db.auth_user.id == db.scores.user_id)],\n\t\t\t\t\t\t   orderby = db.identifications.id)\n\t\n\t# build that data into a dictionary of scores by ident_id \n\t# NB: This groupby relies on DB query above ordering by the key!\n\tscores_rows = {k: list(g) for k, g in itertools.groupby(scores_rows, lambda x: x.identifications.id)}\n\t\n\t# get a list of arguments to set data- options, can\'t set\n\t# arguments with a hyphen in the function\n\tmodal_data_args = {\'_data-toggle\':"modal",\'_data-target\':"#myModal"}\n\t\n\tscore_modals = []\n\titems = []\n\tfor r in ident_rows:\n\t\tprint r\n\t\t# Identification block showing species, proposer and controls\n\t\tident_info = LI(DIV(DIV(IMG(_src=URL(\'static\', \'taxa\', args=r.taxa.thumbnail),\n\t\t\t\t\t\t\t\t\t_width="50", _class="media-object"),\n\t\t\t\t\t\t\t\t_class="media-left"),\n\t\t\t\t\t\t\tDIV(H5(XML(\'{} (<i>{} {}</i>)\'.format(r.taxa.common_name,\n\t\t\t\t\t\t\t\t       r.taxa.genus,  r.taxa.species)),\n\t\t\t\t\t\t\t\t\t_class=\'media-heading\'),\n\t\t\t\t\t\t\t\tTAG.small(\' Proposed by {} {} on {}.\'.format(r.auth_user.first_name, \n\t\t\t\t\t\t\t\t\t\t  r.auth_user.last_name, r.identifications.created_on)),\n\t\t\t\t\t\t\t\t_class=\'media-body\'),\n\t\t\t\t\t\t\t_class="media"),\n\t\t\t\t\t\t_class=\'list-group-item call_info\')\n\t\t\n\t\t\n\t\t#\t\t\t\t TAG.button(SPAN(_class=\'glyphicon glyphicon-eye-open\'), _type="button", _class="btn btn-primary btn-sm",\n\t\t#\t\t\t\t\t\t\t**modal_data_args),\n\t\t\n\t\t# compile user votes if any\n\t\tif r.identifications.id in scores_rows:\n\t\t\tscore_tab = []\n\t\t\tfor c in scores_rows[r.identifications.id]:\n\t\t\t\tscore_tab.append(TR(TD(c.auth_user.first_name + \' \' + c.auth_user.last_name),\n\t\t\t\t\t\t\t\t\tTD(score_icons[c.scores.score])))\n\t\t\t\n\t\t\tscore_tab = TABLE(*score_tab, _class="table table_striped")\n\t\t\tident_info = CAT(ident_info, score_tab)\n\t\t\t\n\t\t\t\n\t\titems.append(DIV(ident_info, _id=\'ident\' + str(r.identifications.id)))\n\t\t\n\t\t# create modal windows for each identification to show the scores\n\t\thyphen_tags = {"_data-dismiss":"modal"}\n\t\tmodal_str = DIV(DIV(DIV(DIV(B("Ratings", _class="modal-title"),\n\t\t\t\t\t\t\t\t\tTAG.button(SPAN(_class=\'glyphicon glyphicon-remove\'),\n\t\t\t\t\t\t\t\t\t\t\t\t_type="button", _class="btn btn-link", **hyphen_tags),\n\t\t\t\t\t\t\t\t\t_class="modal-header"),\n\t\t\t\t\t\t\t\tDIV("Some text",\n\t\t\t\t\t\t\t\t\t_class="modal-body"),\n\t\t\t\t\t\t\t\t# DIV(_class="modal-footer"),\n\t\t\t\t\t\t\t\t_class="modal-content"),\n\t\t\t\t\t\t\t_class="modal-dialog"),\n\t\t\t\t\t\t_id="myModal", _class="modal fade", _role="dialog")\n\t\t\n\t\tmodal_str.element(\'.modal-body\')[0] = score_tab\n\t\n\tlist_group = DIV(*items, _class="panel list-group")\n\t\n\treturn dict(record=record, audio=audio, list_group=list_group) #, modal_str=modal_str)\n\ndef recordings():\n\t\n\tlinks = [dict(header = \'\', \n\t\t\t\t  body = lambda row: A(SPAN(\'\',_class="glyphicon glyphicon-eye-open"),\n\t\t\t\t\t\t\t\t\t   XML(\'&nbsp;\'),\n\t\t\t\t\t\t\t\t\t   SPAN(\'View\', _class="buttontext button"),\n\t\t\t\t\t\t\t\t\t   _class="btn btn-default", \n\t\t\t\t\t\t\t\t\t   _href=URL("player", vars={\'audio_id\':row.id}),\n\t\t\t\t\t\t\t\t\t   _style=\'padding: 3px 5px 3px 5px;\'))]\t \n\t\n\tform = SQLFORM.grid(db.audio,\n\t\t\t\t\t\tfields=[db.audio.filename, db.audio.start_datetime, db.audio.length_seconds],\n\t\t\t\t\t\tcsv=False,\n\t\t\t\t\t\tcreate=False,\n\t\t\t\t\t\teditable=False,\n\t\t\t\t\t\tdetails=False,\n\t\t\t\t\t\tlinks=links)\n\t\n\treturn dict(form=form)\n\ndef taxa():\n\t\n\tform = SQLFORM.grid(db.taxa,\n\t\t\t\t\t\tfields = [db.taxa.common_name, db.taxa.genus, \n\t\t\t\t\t\t\t\t  db.taxa.species, db.taxa.subspecies],\n\t\t\t\t\t\tcsv=False,\n\t\t\t\t\t\tcreate=False,\n\t\t\t\t\t\teditable=False,\n\t\t\t\t\t\tdetails=False)\n\t\n\treturn dict(form=form)\n\ndef taxon():\n\t\n\tif request.vars[\'taxon_id\']:\n\t\trecord = db.taxa(request.vars[\'taxon_id\'])\n\telse:\n\t\trecord = db.taxa(1)\n\t\n\t\n\tform = SQLFORM(db.taxa, record=record, readonly=True)\n\t\n\treturn dict(form=form)\n\n\ndef user():\n\t"""\n\texposes:\n\thttp://..../[app]/default/user/login\n\thttp://..../[app]/default/user/logout\n\thttp://..../[app]/default/user/register\n\thttp://..../[app]/default/user/profile\n\thttp://..../[app]/default/user/retrieve_password\n\thttp://..../[app]/default/user/change_password\n\thttp://..../[app]/default/user/bulk_register\n\tuse @auth.requires_login()\n\t\t@auth.requires_membership(\'group name\')\n\t\t@auth.requires_permission(\'read\',\'table name\',record_id)\n\tto decorate functions that need access control\n\talso notice there is http://..../[app]/appadmin/manage/auth to allow administrator to manage users\n\t"""\n\treturn dict(form=auth())\n\n\n@cache.action()\ndef download():\n\t"""\n\tallows downloading of uploaded files\n\thttp://..../[app]/default/download/[filename]\n\t"""\n\treturn response.download(request, db)\n\n\ndef call():\n\t"""\n\texposes services. for example:\n\thttp://..../[app]/default/call/jsonrpc\n\tdecorate with @services.jsonrpc the functions to expose\n\tsupports xml, json, xmlrpc, jsonrpc, amfrpc, rss, csv\n\t"""\n\treturn service()\n\n\n\nresponse._vars=response._caller(player)\n'
p7
sS'snapshot'
p8
(dp9
S'exception'
p10
(dp11
S'__hash__'
p12
S"<method-wrapper '__hash__' of exceptions.TypeError object>"
p13
sS'__setattr__'
p14
S"<method-wrapper '__setattr__' of exceptions.TypeError object>"
p15
sS'__reduce_ex__'
p16
S'<built-in method __reduce_ex__ of exceptions.TypeError object>'
p17
sS'__getslice__'
p18
S"<method-wrapper '__getslice__' of exceptions.TypeError object>"
p19
sS'__getitem__'
p20
S"<method-wrapper '__getitem__' of exceptions.TypeError object>"
p21
sS'__setstate__'
p22
S'<built-in method __setstate__ of exceptions.TypeError object>'
p23
sS'args'
p24
S'("unhashable type: \'dict\'",)'
p25
sS'__reduce__'
p26
S'<built-in method __reduce__ of exceptions.TypeError object>'
p27
sS'__str__'
p28
S"<method-wrapper '__str__' of exceptions.TypeError object>"
p29
sS'__format__'
p30
S'<built-in method __format__ of exceptions.TypeError object>'
p31
sS'__getattribute__'
p32
S"<method-wrapper '__getattribute__' of exceptions.TypeError object>"
p33
sS'__class__'
p34
S"<type 'exceptions.TypeError'>"
p35
sS'__unicode__'
p36
S'<built-in method __unicode__ of exceptions.TypeError object>'
p37
sS'__delattr__'
p38
S"<method-wrapper '__delattr__' of exceptions.TypeError object>"
p39
sS'__subclasshook__'
p40
S'<built-in method __subclasshook__ of type object>'
p41
sS'__repr__'
p42
S"<method-wrapper '__repr__' of exceptions.TypeError object>"
p43
sS'__dict__'
p44
S'{}'
p45
sS'__sizeof__'
p46
S'<built-in method __sizeof__ of exceptions.TypeError object>'
p47
sS'__doc__'
p48
S"'Inappropriate argument type.'"
p49
sS'__init__'
p50
S"<method-wrapper '__init__' of exceptions.TypeError object>"
p51
sS'__new__'
p52
S'<built-in method __new__ of type object>'
p53
ssS'evalue'
p54
S"unhashable type: 'dict'"
p55
sS'request'
p56
cgluon.html
XML_unpickle
p57
(S's\x16]\x00\x00<div><table><tr><td style="font-weight:bold;vertical-align:top;">ajax</td><td style="vertical-align:top;">:</td><td><div>False</div></td></tr><tr><td style="font-weight:bold;vertical-align:top;">application</td><td style="vertical-align:top;">:</td><td><div>Rainforest_Rhythm</div></td></tr><tr><td style="font-weight:bold;vertical-align:top;">args</td><td style="vertical-align:top;">:</td><td><div><table></table></div></td></tr><tr><td style="font-weight:bold;vertical-align:top;">cid</td><td style="vertical-align:top;">:</td><td><div>None</div></td></tr><tr><td style="font-weight:bold;vertical-align:top;">client</td><td style="vertical-align:top;">:</td><td><div>127.0.0.1</div></td></tr><tr><td style="font-weight:bold;vertical-align:top;">controller</td><td style="vertical-align:top;">:</td><td><div>default</div></td></tr><tr><td style="font-weight:bold;vertical-align:top;">cookies</td><td style="vertical-align:top;">:</td><td><div><table><tr><td style="font-weight:bold;vertical-align:top;">session_id_admin</td><td style="vertical-align:top;">:</td><td><div>127.0.0.1-490bbf04-a78f-4327-9342-9e275fef5aad<table><tr><td style="font-weight:bold;vertical-align:top;">comment</td><td style="vertical-align:top;">:</td><td><div></div></td></tr><tr><td style="font-weight:bold;vertical-align:top;">domain</td><td style="vertical-align:top;">:</td><td><div></div></td></tr><tr><td style="font-weight:bold;vertical-align:top;">expires</td><td style="vertical-align:top;">:</td><td><div></div></td></tr><tr><td style="font-weight:bold;vertical-align:top;">httponly</td><td style="vertical-align:top;">:</td><td><div></div></td></tr><tr><td style="font-weight:bold;vertical-align:top;">max-age</td><td style="vertical-align:top;">:</td><td><div></div></td></tr><tr><td style="font-weight:bold;vertical-align:top;">path</td><td style="vertical-align:top;">:</td><td><div></div></td></tr><tr><td style="font-weight:bold;vertical-align:top;">secure</td><td style="vertical-align:top;">:</td><td><div></div></td></tr><tr><td style="font-weight:bold;vertical-align:top;">version</td><td style="vertical-align:top;">:</td><td><div></div></td></tr></table></div></td></tr><tr><td style="font-weight:bold;vertical-align:top;">session_id_rainforest_rhythm</td><td style="vertical-align:top;">:</td><td><div>127.0.0.1-91d5a12d-62db-48c2-b4db-51e947f8a8fa<table><tr><td style="font-weight:bold;vertical-align:top;">comment</td><td style="vertical-align:top;">:</td><td><div></div></td></tr><tr><td style="font-weight:bold;vertical-align:top;">domain</td><td style="vertical-align:top;">:</td><td><div></div></td></tr><tr><td style="font-weight:bold;vertical-align:top;">expires</td><td style="vertical-align:top;">:</td><td><div></div></td></tr><tr><td style="font-weight:bold;vertical-align:top;">httponly</td><td style="vertical-align:top;">:</td><td><div></div></td></tr><tr><td style="font-weight:bold;vertical-align:top;">max-age</td><td style="vertical-align:top;">:</td><td><div></div></td></tr><tr><td style="font-weight:bold;vertical-align:top;">path</td><td style="vertical-align:top;">:</td><td><div></div></td></tr><tr><td style="font-weight:bold;vertical-align:top;">secure</td><td style="vertical-align:top;">:</td><td><div></div></td></tr><tr><td style="font-weight:bold;vertical-align:top;">version</td><td style="vertical-align:top;">:</td><td><div></div></td></tr></table></div></td></tr><tr><td style="font-weight:bold;vertical-align:top;">session_id_safe_web</td><td style="vertical-align:top;">:</td><td><div>127.0.0.1-f6f29f1b-b826-4b74-afe3-404bf7721a41<table><tr><td style="font-weight:bold;vertical-align:top;">comment</td><td style="vertical-align:top;">:</td><td><div></div></td></tr><tr><td style="font-weight:bold;vertical-align:top;">domain</td><td style="vertical-align:top;">:</td><td><div></div></td></tr><tr><td style="font-weight:bold;vertical-align:top;">expires</td><td style="vertical-align:top;">:</td><td><div></div></td></tr><tr><td style="font-weight:bold;vertical-align:top;">httponly</td><td style="vertical-align:top;">:</td><td><div></div></td></tr><tr><td style="font-weight:bold;vertical-align:top;">max-age</td><td style="vertical-align:top;">:</td><td><div></div></td></tr><tr><td style="font-weight:bold;vertical-align:top;">path</td><td style="vertical-align:top;">:</td><td><div></div></td></tr><tr><td style="font-weight:bold;vertical-align:top;">secure</td><td style="vertical-align:top;">:</td><td><div></div></td></tr><tr><td style="font-weight:bold;vertical-align:top;">version</td><td style="vertical-align:top;">:</td><td><div></div></td></tr></table></div></td></tr></table></div></td></tr><tr><td style="font-weight:bold;vertical-align:top;">env</td><td style="vertical-align:top;">:</td><td><div><table><tr><td style="font-weight:bold;vertical-align:top;">HTTP_ACCEPT</td><td style="vertical-align:top;">:</td><td><div>text/html,application/xhtml+xml,application/xml;q=0.9,image/webp,*/*;q=0.8</div></td></tr><tr><td style="font-weight:bold;vertical-align:top;">HTTP_ACCEPT_ENCODING</td><td style="vertical-align:top;">:</td><td><div>gzip, deflate, sdch, br</div></td></tr><tr><td style="font-weight:bold;vertical-align:top;">HTTP_ACCEPT_LANGUAGE</td><td style="vertical-align:top;">:</td><td><div>en-US,en;q=0.8</div></td></tr><tr><td style="font-weight:bold;vertical-align:top;">HTTP_CACHE_CONTROL</td><td style="vertical-align:top;">:</td><td><div>max-age=0</div></td></tr><tr><td style="font-weight:bold;vertical-align:top;">HTTP_CONNECTION</td><td style="vertical-align:top;">:</td><td><div>keep-alive</div></td></tr><tr><td style="font-weight:bold;vertical-align:top;">HTTP_COOKIE</td><td style="vertical-align:top;">:</td><td><div>session_id_safe_web=127.0.0.1-f6f29f1b-b826-4b74-afe3-404bf7721a41; session_id_rainforest_rhythm=127.0.0.1-91d5a12d-62db-48c2-b4db-51e947f8a8fa; session_id_admin=127.0.0.1-490bbf04-a78f-4327-9342-9e275fef5aad</div></td></tr><tr><td style="font-weight:bold;vertical-align:top;">HTTP_HOST</td><td style="vertical-align:top;">:</td><td><div>127.0.0.1:8000</div></td></tr><tr><td style="font-weight:bold;vertical-align:top;">HTTP_UPGRADE_INSECURE_REQUESTS</td><td style="vertical-align:top;">:</td><td><div>1</div></td></tr><tr><td style="font-weight:bold;vertical-align:top;">HTTP_USER_AGENT</td><td style="vertical-align:top;">:</td><td><div>Mozilla/5.0 (Macintosh; Intel Mac OS X 10_10_5) AppleWebKit/537.36 (KHTML, like Gecko) Chrome/56.0.2924.87 Safari/537.36</div></td></tr><tr><td style="font-weight:bold;vertical-align:top;">PATH_INFO</td><td style="vertical-align:top;">:</td><td><div>/Rainforest_Rhythm/player</div></td></tr><tr><td style="font-weight:bold;vertical-align:top;">QUERY_STRING</td><td style="vertical-align:top;">:</td><td><div>audio_id=1</div></td></tr><tr><td style="font-weight:bold;vertical-align:top;">REMOTE_ADDR</td><td style="vertical-align:top;">:</td><td><div>127.0.0.1</div></td></tr><tr><td style="font-weight:bold;vertical-align:top;">REMOTE_PORT</td><td style="vertical-align:top;">:</td><td><div>55110</div></td></tr><tr><td style="font-weight:bold;vertical-align:top;">REQUEST_METHOD</td><td style="vertical-align:top;">:</td><td><div>GET</div></td></tr><tr><td style="font-weight:bold;vertical-align:top;">SCRIPT_NAME</td><td style="vertical-align:top;">:</td><td><div></div></td></tr><tr><td style="font-weight:bold;vertical-align:top;">SERVER_NAME</td><td style="vertical-align:top;">:</td><td><div>lb-dormelap.sp.ic.ac.uk</div></td></tr><tr><td style="font-weight:bold;vertical-align:top;">SERVER_PORT</td><td style="vertical-align:top;">:</td><td><div>8000</div></td></tr><tr><td style="font-weight:bold;vertical-align:top;">SERVER_PROTOCOL</td><td style="vertical-align:top;">:</td><td><div>HTTP/1.1</div></td></tr><tr><td style="font-weight:bold;vertical-align:top;">SERVER_SOFTWARE</td><td style="vertical-align:top;">:</td><td><div>Rocket 1.2.6</div></td></tr><tr><td style="font-weight:bold;vertical-align:top;">app_folders</td><td style="vertical-align:top;">:</td><td><div>set([&#x27;/Users/dorme/Research/SAFE/Web2Py/web2py/applications/admin/&#x27;, &#x27;/Users/dorme/Research/SAFE/Web2Py/web2py/applications/Rainforest_Rhythm/&#x27;, &#x27;/Users/dorme/Research/SAFE/Web2Py/web2py/applications/SAFE_web/&#x27;])</div></td></tr><tr><td style="font-weight:bold;vertical-align:top;">applications_parent</td><td style="vertical-align:top;">:</td><td><div>/Users/dorme/Research/SAFE/Web2Py/web2py</div></td></tr><tr><td style="font-weight:bold;vertical-align:top;">cmd_args</td><td style="vertical-align:top;">:</td><td><div><table></table></div></td></tr><tr><td style="font-weight:bold;vertical-align:top;">cmd_options</td><td style="vertical-align:top;">:</td><td><div>&lt;Values at 0x10439f518: {&#x27;verbose&#x27;: False, &#x27;ip&#x27;: &#x27;127.0.0.1&#x27;, &#x27;debuglevel&#x27;: 30, &#x27;with_scheduler&#x27;: False, &#x27;ips&#x27;: [&#x27;129.31.3.3&#x27;], &#x27;shutdown_timeout&#x27;: 5, &#x27;taskbar&#x27;: False, &#x27;with_coverage&#x27;: False, &#x27;scheduler_groups&#x27;: None, &#x27;port&#x27;: 8000, &#x27;maxthreads&#x27;: None, &#x27;softcron&#x27;: False, &#x27;server_name&#x27;: &#x27;lb-dormelap.sp.ic.ac.uk&#x27;, &#x27;bpython&#x27;: False, &#x27;nogui&#x27;: False, &#x27;pid_filename&#x27;: &#x27;httpserver.pid&#x27;, &#x27;print_errors&#x27;: False, &#x27;extcron&#x27;: False, &#x27;runcron&#x27;: False, &#x27;run_system_tests&#x27;: False, &#x27;test&#x27;: None, &#x27;folder&#x27;: &#x27;/Users/dorme/Research/SAFE/Web2Py/web2py&#x27;, &#x27;config&#x27;: &#x27;&#x27;, &#x27;minthreads&#x27;: None, &#x27;shell&#x27;: None, &#x27;run&#x27;: &#x27;&#x27;, &#x27;log_filename&#x27;: &#x27;httpserver.log&#x27;, &#x27;profiler_dir&#x27;: None, &#x27;args&#x27;: [&#x27;&#x27;], &#x27;socket_timeout&#x27;: 5, &#x27;ssl_ca_certificate&#x27;: None, &#x27;scheduler&#x27;: None, &#x27;interfaces&#x27;: None, &#x27;ssl_private_key&#x27;: &#x27;&#x27;, &#x27;gae&#x27;: None, &#x27;password&#x27;: &#x27;&lt;ask&gt;&#x27;, &#x27;request_queue_size&#x27;: 5, &#x27;ssl_certificate&#x27;: &#x27;&#x27;, &#x27;cronjob&#x27;: False, &#x27;numthreads&#x27;: None, &#x27;quiet&#x27;: False, &#x27;import_models&#x27;: False, &#x27;timeout&#x27;: 10, &#x27;plain&#x27;: False, &#x27;nobanner&#x27;: False}&gt;</div></td></tr><tr><td style="font-weight:bold;vertical-align:top;">db_sessions</td><td style="vertical-align:top;">:</td><td><div>set([])</div></td></tr><tr><td style="font-weight:bold;vertical-align:top;">debugging</td><td style="vertical-align:top;">:</td><td><div>True</div></td></tr><tr><td style="font-weight:bold;vertical-align:top;">gluon_parent</td><td style="vertical-align:top;">:</td><td><div>/Users/dorme/Research/SAFE/Web2Py/web2py</div></td></tr><tr><td style="font-weight:bold;vertical-align:top;">http_accept</td><td style="vertical-align:top;">:</td><td><div>text/html,application/xhtml+xml,application/xml;q=0.9,image/webp,*/*;q=0.8</div></td></tr><tr><td style="font-weight:bold;vertical-align:top;">http_accept_encoding</td><td style="vertical-align:top;">:</td><td><div>gzip, deflate, sdch, br</div></td></tr><tr><td style="font-weight:bold;vertical-align:top;">http_accept_language</td><td style="vertical-align:top;">:</td><td><div>en-US,en;q=0.8</div></td></tr><tr><td style="font-weight:bold;vertical-align:top;">http_cache_control</td><td style="vertical-align:top;">:</td><td><div>max-age=0</div></td></tr><tr><td style="font-weight:bold;vertical-align:top;">http_connection</td><td style="vertical-align:top;">:</td><td><div>keep-alive</div></td></tr><tr><td style="font-weight:bold;vertical-align:top;">http_cookie</td><td style="vertical-align:top;">:</td><td><div>session_id_safe_web=127.0.0.1-f6f29f1b-b826-4b74-afe3-404bf7721a41; session_id_rainforest_rhythm=127.0.0.1-91d5a12d-62db-48c2-b4db-51e947f8a8fa; session_id_admin=127.0.0.1-490bbf04-a78f-4327-9342-9e275fef5aad</div></td></tr><tr><td style="font-weight:bold;vertical-align:top;">http_host</td><td style="vertical-align:top;">:</td><td><div>127.0.0.1:8000</div></td></tr><tr><td style="font-weight:bold;vertical-align:top;">http_upgrade_insecure_requests</td><td style="vertical-align:top;">:</td><td><div>1</div></td></tr><tr><td style="font-weight:bold;vertical-align:top;">http_user_agent</td><td style="vertical-align:top;">:</td><td><div>Mozilla/5.0 (Macintosh; Intel Mac OS X 10_10_5) AppleWebKit/537.36 (KHTML, like Gecko) Chrome/56.0.2924.87 Safari/537.36</div></td></tr><tr><td style="font-weight:bold;vertical-align:top;">is_jython</td><td style="vertical-align:top;">:</td><td><div>False</div></td></tr><tr><td style="font-weight:bold;vertical-align:top;">is_pypy</td><td style="vertical-align:top;">:</td><td><div>False</div></td></tr><tr><td style="font-weight:bold;vertical-align:top;">is_source</td><td style="vertical-align:top;">:</td><td><div>True</div></td></tr><tr><td style="font-weight:bold;vertical-align:top;">local_hosts</td><td style="vertical-align:top;">:</td><td><div><table><tr><td><div>129.31.3.3</div></td></tr><tr><td><div>::1</div></td></tr><tr><td><div>::ffff:127.0.0.1</div></td></tr><tr><td><div>127.0.0.1</div></td></tr><tr><td><div>lb-dormelap.sp.ic.ac.uk</div></td></tr></table></div></td></tr><tr><td style="font-weight:bold;vertical-align:top;">path_info</td><td style="vertical-align:top;">:</td><td><div>/Rainforest_Rhythm/player</div></td></tr><tr><td style="font-weight:bold;vertical-align:top;">query_string</td><td style="vertical-align:top;">:</td><td><div>audio_id=1</div></td></tr><tr><td style="font-weight:bold;vertical-align:top;">remote_addr</td><td style="vertical-align:top;">:</td><td><div>127.0.0.1</div></td></tr><tr><td style="font-weight:bold;vertical-align:top;">remote_port</td><td style="vertical-align:top;">:</td><td><div>55110</div></td></tr><tr><td style="font-weight:bold;vertical-align:top;">request_method</td><td style="vertical-align:top;">:</td><td><div>GET</div></td></tr><tr><td style="font-weight:bold;vertical-align:top;">request_uri</td><td style="vertical-align:top;">:</td><td><div>/Rainforest_Rhythm/default/player?audio_id=1</div></td></tr><tr><td style="font-weight:bold;vertical-align:top;">script_name</td><td style="vertical-align:top;">:</td><td><div></div></td></tr><tr><td style="font-weight:bold;vertical-align:top;">server_name</td><td style="vertical-align:top;">:</td><td><div>lb-dormelap.sp.ic.ac.uk</div></td></tr><tr><td style="font-weight:bold;vertical-align:top;">server_port</td><td style="vertical-align:top;">:</td><td><div>8000</div></td></tr><tr><td style="font-weight:bold;vertical-align:top;">server_protocol</td><td style="vertical-align:top;">:</td><td><div>HTTP/1.1</div></td></tr><tr><td style="font-weight:bold;vertical-align:top;">server_software</td><td style="vertical-align:top;">:</td><td><div>Rocket 1.2.6</div></td></tr><tr><td style="font-weight:bold;vertical-align:top;">web2py_original_uri</td><td style="vertical-align:top;">:</td><td><div>/Rainforest_Rhythm/player?audio_id=1</div></td></tr><tr><td style="font-weight:bold;vertical-align:top;">web2py_path</td><td style="vertical-align:top;">:</td><td><div>/Users/dorme/Research/SAFE/Web2Py/web2py</div></td></tr><tr><td style="font-weight:bold;vertical-align:top;">web2py_version</td><td style="vertical-align:top;">:</td><td><div>2.13.2-stable+timestamp.2015.12.18.11.00.46</div></td></tr><tr><td style="font-weight:bold;vertical-align:top;">wsgi.errors</td><td style="vertical-align:top;">:</td><td><div>&lt;open file &#x27;&lt;stderr&gt;&#x27;, mode &#x27;w&#x27; at 0x1002971e0&gt;</div></td></tr><tr><td style="font-weight:bold;vertical-align:top;">wsgi.file_wrapper</td><td style="vertical-align:top;">:</td><td><div>&lt;class wsgiref.util.FileWrapper at 0x104311258&gt;</div></td></tr><tr><td style="font-weight:bold;vertical-align:top;">wsgi.input</td><td style="vertical-align:top;">:</td><td><div>&lt;socket._fileobject object at 0x10f6f4850&gt;</div></td></tr><tr><td style="font-weight:bold;vertical-align:top;">wsgi.multiprocess</td><td style="vertical-align:top;">:</td><td><div>False</div></td></tr><tr><td style="font-weight:bold;vertical-align:top;">wsgi.multithread</td><td style="vertical-align:top;">:</td><td><div>True</div></td></tr><tr><td style="font-weight:bold;vertical-align:top;">wsgi.run_once</td><td style="vertical-align:top;">:</td><td><div>False</div></td></tr><tr><td style="font-weight:bold;vertical-align:top;">wsgi.url_scheme</td><td style="vertical-align:top;">:</td><td><div>http</div></td></tr><tr><td style="font-weight:bold;vertical-align:top;">wsgi.version</td><td style="vertical-align:top;">:</td><td><div><table><tr><td><div>1</div></td></tr><tr><td><div>0</div></td></tr></table></div></td></tr><tr><td style="font-weight:bold;vertical-align:top;">wsgi_errors</td><td style="vertical-align:top;">:</td><td><div>&lt;open file &#x27;&lt;stderr&gt;&#x27;, mode &#x27;w&#x27; at 0x1002971e0&gt;</div></td></tr><tr><td style="font-weight:bold;vertical-align:top;">wsgi_file_wrapper</td><td style="vertical-align:top;">:</td><td><div>&lt;class wsgiref.util.FileWrapper at 0x104311258&gt;</div></td></tr><tr><td style="font-weight:bold;vertical-align:top;">wsgi_input</td><td style="vertical-align:top;">:</td><td><div>&lt;socket._fileobject object at 0x10f6f4850&gt;</div></td></tr><tr><td style="font-weight:bold;vertical-align:top;">wsgi_multiprocess</td><td style="vertical-align:top;">:</td><td><div>False</div></td></tr><tr><td style="font-weight:bold;vertical-align:top;">wsgi_multithread</td><td style="vertical-align:top;">:</td><td><div>True</div></td></tr><tr><td style="font-weight:bold;vertical-align:top;">wsgi_run_once</td><td style="vertical-align:top;">:</td><td><div>False</div></td></tr><tr><td style="font-weight:bold;vertical-align:top;">wsgi_url_scheme</td><td style="vertical-align:top;">:</td><td><div>http</div></td></tr><tr><td style="font-weight:bold;vertical-align:top;">wsgi_version</td><td style="vertical-align:top;">:</td><td><div><table><tr><td><div>1</div></td></tr><tr><td><div>0</div></td></tr></table></div></td></tr></table></div></td></tr><tr><td style="font-weight:bold;vertical-align:top;">extension</td><td style="vertical-align:top;">:</td><td><div>html</div></td></tr><tr><td style="font-weight:bold;vertical-align:top;">folder</td><td style="vertical-align:top;">:</td><td><div>/Users/dorme/Research/SAFE/Web2Py/web2py/applications/Rainforest_Rhythm/</div></td></tr><tr><td style="font-weight:bold;vertical-align:top;">function</td><td style="vertical-align:top;">:</td><td><div>player</div></td></tr><tr><td style="font-weight:bold;vertical-align:top;">global_settings</td><td style="vertical-align:top;">:</td><td><div><table><tr><td style="font-weight:bold;vertical-align:top;">app_folders</td><td style="vertical-align:top;">:</td><td><div>set([&#x27;/Users/dorme/Research/SAFE/Web2Py/web2py/applications/admin/&#x27;, &#x27;/Users/dorme/Research/SAFE/Web2Py/web2py/applications/Rainforest_Rhythm/&#x27;, &#x27;/Users/dorme/Research/SAFE/Web2Py/web2py/applications/SAFE_web/&#x27;])</div></td></tr><tr><td style="font-weight:bold;vertical-align:top;">applications_parent</td><td style="vertical-align:top;">:</td><td><div>/Users/dorme/Research/SAFE/Web2Py/web2py</div></td></tr><tr><td style="font-weight:bold;vertical-align:top;">cmd_args</td><td style="vertical-align:top;">:</td><td><div><table></table></div></td></tr><tr><td style="font-weight:bold;vertical-align:top;">cmd_options</td><td style="vertical-align:top;">:</td><td><div>&lt;Values at 0x10439f518: {&#x27;verbose&#x27;: False, &#x27;ip&#x27;: &#x27;127.0.0.1&#x27;, &#x27;debuglevel&#x27;: 30, &#x27;with_scheduler&#x27;: False, &#x27;ips&#x27;: [&#x27;129.31.3.3&#x27;], &#x27;shutdown_timeout&#x27;: 5, &#x27;taskbar&#x27;: False, &#x27;with_coverage&#x27;: False, &#x27;scheduler_groups&#x27;: None, &#x27;port&#x27;: 8000, &#x27;maxthreads&#x27;: None, &#x27;softcron&#x27;: False, &#x27;server_name&#x27;: &#x27;lb-dormelap.sp.ic.ac.uk&#x27;, &#x27;bpython&#x27;: False, &#x27;nogui&#x27;: False, &#x27;pid_filename&#x27;: &#x27;httpserver.pid&#x27;, &#x27;print_errors&#x27;: False, &#x27;extcron&#x27;: False, &#x27;runcron&#x27;: False, &#x27;run_system_tests&#x27;: False, &#x27;test&#x27;: None, &#x27;folder&#x27;: &#x27;/Users/dorme/Research/SAFE/Web2Py/web2py&#x27;, &#x27;config&#x27;: &#x27;&#x27;, &#x27;minthreads&#x27;: None, &#x27;shell&#x27;: None, &#x27;run&#x27;: &#x27;&#x27;, &#x27;log_filename&#x27;: &#x27;httpserver.log&#x27;, &#x27;profiler_dir&#x27;: None, &#x27;args&#x27;: [&#x27;&#x27;], &#x27;socket_timeout&#x27;: 5, &#x27;ssl_ca_certificate&#x27;: None, &#x27;scheduler&#x27;: None, &#x27;interfaces&#x27;: None, &#x27;ssl_private_key&#x27;: &#x27;&#x27;, &#x27;gae&#x27;: None, &#x27;password&#x27;: &#x27;&lt;ask&gt;&#x27;, &#x27;request_queue_size&#x27;: 5, &#x27;ssl_certificate&#x27;: &#x27;&#x27;, &#x27;cronjob&#x27;: False, &#x27;numthreads&#x27;: None, &#x27;quiet&#x27;: False, &#x27;import_models&#x27;: False, &#x27;timeout&#x27;: 10, &#x27;plain&#x27;: False, &#x27;nobanner&#x27;: False}&gt;</div></td></tr><tr><td style="font-weight:bold;vertical-align:top;">db_sessions</td><td style="vertical-align:top;">:</td><td><div>set([])</div></td></tr><tr><td style="font-weight:bold;vertical-align:top;">debugging</td><td style="vertical-align:top;">:</td><td><div>True</div></td></tr><tr><td style="font-weight:bold;vertical-align:top;">gluon_parent</td><td style="vertical-align:top;">:</td><td><div>/Users/dorme/Research/SAFE/Web2Py/web2py</div></td></tr><tr><td style="font-weight:bold;vertical-align:top;">is_jython</td><td style="vertical-align:top;">:</td><td><div>False</div></td></tr><tr><td style="font-weight:bold;vertical-align:top;">is_pypy</td><td style="vertical-align:top;">:</td><td><div>False</div></td></tr><tr><td style="font-weight:bold;vertical-align:top;">is_source</td><td style="vertical-align:top;">:</td><td><div>True</div></td></tr><tr><td style="font-weight:bold;vertical-align:top;">local_hosts</td><td style="vertical-align:top;">:</td><td><div><table><tr><td><div>129.31.3.3</div></td></tr><tr><td><div>::1</div></td></tr><tr><td><div>::ffff:127.0.0.1</div></td></tr><tr><td><div>127.0.0.1</div></td></tr><tr><td><div>lb-dormelap.sp.ic.ac.uk</div></td></tr></table></div></td></tr><tr><td style="font-weight:bold;vertical-align:top;">web2py_version</td><td style="vertical-align:top;">:</td><td><div>2.13.2-stable+timestamp.2015.12.18.11.00.46</div></td></tr></table></div></td></tr><tr><td style="font-weight:bold;vertical-align:top;">is_https</td><td style="vertical-align:top;">:</td><td><div>False</div></td></tr><tr><td style="font-weight:bold;vertical-align:top;">is_local</td><td style="vertical-align:top;">:</td><td><div>True</div></td></tr><tr><td style="font-weight:bold;vertical-align:top;">is_restful</td><td style="vertical-align:top;">:</td><td><div>False</div></td></tr><tr><td style="font-weight:bold;vertical-align:top;">is_scheduler</td><td style="vertical-align:top;">:</td><td><div>False</div></td></tr><tr><td style="font-weight:bold;vertical-align:top;">is_shell</td><td style="vertical-align:top;">:</td><td><div>False</div></td></tr><tr><td style="font-weight:bold;vertical-align:top;">now</td><td style="vertical-align:top;">:</td><td><div>datetime.datetime(2017, 2, 16, 13, 53, 51, 589821)</div></td></tr><tr><td style="font-weight:bold;vertical-align:top;">url</td><td style="vertical-align:top;">:</td><td><div>/Rainforest_Rhythm/player</div></td></tr><tr><td style="font-weight:bold;vertical-align:top;">utcnow</td><td style="vertical-align:top;">:</td><td><div>datetime.datetime(2017, 2, 16, 13, 53, 51, 589835)</div></td></tr><tr><td style="font-weight:bold;vertical-align:top;">wsgi</td><td style="vertical-align:top;">:</td><td><div>&lt;gluon.main.LazyWSGI object at 0x1125c7f90&gt;</div></td></tr></table></div>'
tRp58
sS'frames'
p59
(lp60
(dp61
S'file'
p62
S'/Users/dorme/Research/SAFE/Web2Py/web2py/gluon/restricted.py'
p63
sS'dump'
p64
(dp65
S'environment'
p66
S"{'A': <class 'gluon.html.A'>, 'ANY_OF': <class 'gluon.validators.ANY_OF'>, 'ASSIGNJS': <function ASSIGNJS>, 'AppConfig': <function AppConfig>, 'AudioSegment': <class 'pydub.audio_segment.AudioSegment'>, 'Auth': <class 'gluon.tools.Auth'>, 'B': <class 'gluon.html.B'>, 'BEAUTIFY': <class 'gluon.html.BEAUTIFY'>, 'BODY': <class 'gluon.html.BODY'>, 'BR': <class 'gluon.html.BR'>, ...}"
p67
sS'ccode'
p68
S'<code object <module> at 0x110ab5930, file "/Use...ainforest_Rhythm/controllers/default.py", line 4>'
p69
ssS'lnum'
p70
I227
sS'lines'
p71
(dp72
I224
S'            ccode = code'
p73
sI225
S'        else:'
p74
sI226
S'            ccode = compile2(code, layer)'
p75
sI227
S'        exec ccode in environment'
p76
sI228
S'    except HTTP:'
p77
sI229
S'        raise'
p78
sI230
S'    except RestrictedError:'
p79
sI231
S'        # do not encapsulate (obfuscate) the original RestrictedError'
p80
sI222
S'    try:'
p81
sI223
S'        if isinstance(code, types.CodeType):'
p82
ssS'call'
p83
S"(code='# -*- coding: utf-8 -*-\\n# this file is released ...ice()\\n\\n\\n\\nresponse._vars=response._caller(player)\\n', environment={'A': <class 'gluon.html.A'>, 'ANY_OF': <class 'gluon.validators.ANY_OF'>, 'ASSIGNJS': <function ASSIGNJS>, 'AppConfig': <function AppConfig>, 'AudioSegment': <class 'pydub.audio_segment.AudioSegment'>, 'Auth': <class 'gluon.tools.Auth'>, 'B': <class 'gluon.html.B'>, 'BEAUTIFY': <class 'gluon.html.BEAUTIFY'>, 'BODY': <class 'gluon.html.BODY'>, 'BR': <class 'gluon.html.BR'>, ...}, layer='/Users/dorme/Research/SAFE/Web2Py/web2py/applications/Rainforest_Rhythm/controllers/default.py')"
p84
sS'func'
p85
S'restricted'
p86
sa(dp87
g62
S'/Users/dorme/Research/SAFE/Web2Py/web2py/applications/Rainforest_Rhythm/controllers/default.py'
p88
sg64
(dp89
sg70
I366
sg71
(dp90
I355
S'def call():'
p91
sI356
S'\t"""'
p92
sI357
S'\texposes services. for example:'
p93
sI358
S'\thttp://..../[app]/default/call/jsonrpc'
p94
sI359
S'\tdecorate with @services.jsonrpc the functions to expose'
p95
sI360
S'\tsupports xml, json, xmlrpc, jsonrpc, amfrpc, rss, csv'
p96
sI361
S'\t"""'
p97
sI362
S'\treturn service()'
p98
sI363
S''
sI364
S''
ssg83
S'()'
p99
sg85
S'<module>'
p100
sa(dp101
g62
S'/Users/dorme/Research/SAFE/Web2Py/web2py/gluon/globals.py'
p102
sg64
(dp103
S'self'
p104
S'undefined'
p105
sS'f'
S'<function player>'
p106
ssg70
I412
sg71
(dp107
I416
S"        self.generic_patterns = ['*']"
p108
sI407
S"        self.flash = ''            # used by the default view layout"
p109
sI408
S'        self.meta = Storage()      # used by web2py_ajax.html'
p110
sI409
S'        self.menu = []             # used by the default view layout'
p111
sI410
S'        self.files = []            # used by web2py_ajax.html'
p112
sI411
S'        self._vars = None'
p113
sI412
S'        self._caller = lambda f: f()'
p114
sI413
S'        self._view_environment = None'
p115
sI414
S'        self._custom_commit = None'
p116
sI415
S'        self._custom_rollback = None'
p117
ssg83
S'(f=<function player>)'
p118
sg85
S'<lambda>'
p119
sa(dp120
g62
S'/Users/dorme/Research/SAFE/Web2Py/web2py/applications/Rainforest_Rhythm/controllers/default.py'
p121
sg64
(dp122
S'global URL'
p123
S'<function URL>'
p124
sS'record'
p125
S"<Row {'previous_part': None, 'start_datetime': d...th': 'audio/SM300545_0+1_20150909_134611_1.mp3'}>"
p126
sS'record.next_part'
p127
S'2L'
p128
sS'args'
p129
g105
sS'_href'
p130
g105
ssg70
I49
sg71
(dp131
I44
S'\telse:'
p132
sI45
S'\t\tbackward_link = I()'
p133
sI46
S''
sI47
S'\tif record.next_part:'
p134
sI48
S"\t\tforward_link = A(I(_class='glyphicon glyphicon-chevron-right'),"
p135
sI49
S"\t\t\t\t\t\t  _href=URL('default','player', args={'audio_id':record.next_part}))"
p136
sI50
S'\telse:'
p137
sI51
S'\t\tforward_link = I()'
p138
sI52
S''
sI53
S'\t# get the calls for this audio...'
p139
ssg83
S'()'
p140
sg85
S'player'
p141
sa(dp142
g62
S'/Users/dorme/Research/SAFE/Web2Py/web2py/gluon/html.py'
p143
sg64
(dp144
S'language'
p145
S'None'
p146
sS'args'
p147
S"[{'audio_id': 2L}]"
p148
sS'host'
p149
S'None'
p150
sS'other'
p151
S"'/%7B%27audio_id%27%3A%202L%7D'"
p152
sS'scheme'
p153
S'None'
p154
sS'port'
p155
S'None'
p156
ssg70
I402
sg71
(dp157
I397
S''
sI398
S'    if regex_crlf.search(join([application, controller, function, other])):'
p158
sI399
S"        raise SyntaxError('CRLF Injection Detected')"
p159
sI400
S''
sI401
S'    url = url_out(r, env, application, controller, function,'
p160
sI402
S'                  args, other, scheme, host, port, language=language)'
p161
sI403
S'    return url'
p162
sI404
S''
sI405
S''
sI406
S'def verifyURL(request, hmac_key=None, hash_vars=True, salt=None, user_signature=None):'
p163
ssg83
S"(a=None, c='default', f='player', r=<Storage {'_vars': <Storage {'audio_id': '1'}>, .../Web2Py/web2py/applications/Rainforest_Rhythm/'}>, args=[{'audio_id': 2L}], vars={}, anchor='', extension=None, env=<Storage {'SERVER_SOFTWARE': 'Rocket 1.2.6', 'sc...TTP_ACCEPT_ENCODING': 'gzip, deflate, sdch, br'}>, hmac_key=None, hash_vars=True, salt=None, user_signature=None, scheme=None, host=None, port=None, encode_embedded_slash=False, url_encode=True, language=None)"
p164
sg85
S'URL'
p165
sa(dp166
g62
S'/Users/dorme/Research/SAFE/Web2Py/web2py/gluon/rewrite.py'
p167
sg64
(dp168
S'function'
p169
S"'player'"
p170
sS'language'
p171
S'None'
p172
sS'args'
p173
S"[{'audio_id': 2L}]"
p174
sS'host'
p175
S'None'
p176
sS'other'
p177
S"'/%7B%27audio_id%27%3A%202L%7D'"
p178
sS'scheme'
p179
S'None'
p180
sS'port'
p181
S'None'
p182
ssg70
I195
sg71
(dp183
I192
S'    """Assembles and rewrites outgoing URL"""'
p184
sI193
S'    if routers:'
p185
sI194
S'        acf = map_url_out(request, environ, application, controller,'
p186
sI195
S'                          function, args, other, scheme, host, port, language)'
p187
sI196
S"        url = '%s%s' % (acf, other)"
p188
sI197
S'    else:'
p189
sI198
S"        url = '/%s/%s/%s%s' % (application, controller, function, other)"
p190
sI199
S'        url = regex_filter_out(url, environ)'
p191
sI190
S'def url_out(request, environ, application, controller, function,'
p192
sI191
S'            args, other, scheme, host, port, language=None):'
p193
ssg83
S"(request=<Storage {'_vars': <Storage {'audio_id': '1'}>, .../Web2Py/web2py/applications/Rainforest_Rhythm/'}>, environ=<Storage {'SERVER_SOFTWARE': 'Rocket 1.2.6', 'sc...TTP_ACCEPT_ENCODING': 'gzip, deflate, sdch, br'}>, application='Rainforest_Rhythm', controller='default', function='player', args=[{'audio_id': 2L}], other='/%7B%27audio_id%27%3A%202L%7D', scheme=None, host=None, port=None, language=None)"
p194
sg85
S'url_out'
p195
sa(dp196
g62
S'/Users/dorme/Research/SAFE/Web2Py/web2py/gluon/rewrite.py'
p197
sg64
(dp198
S'map'
p199
S'<gluon.rewrite.MapUrlOut object>'
p200
sS'map.acf'
p201
S'<bound method MapUrlOut.acf of <gluon.rewrite.MapUrlOut object>>'
p202
ssg70
I1364
sg71
(dp203
I1359
S''
sI1360
S'    We assume that language names do not collide with a/c/f names.'
p204
sI1361
S'    """'
p205
sI1362
S'    map = MapUrlOut(request, env, application, controller,'
p206
sI1363
S'                    function, args, other, scheme, host, port, language)'
p207
sI1364
S'    return map.acf()'
p208
sI1365
S''
sI1366
S''
sI1367
S'def get_effective_router(appname):'
p209
sI1368
S'    """Returns a private copy of the effective router for the specified application"""'
p210
ssg83
S"(request=<Storage {'_vars': <Storage {'audio_id': '1'}>, .../Web2Py/web2py/applications/Rainforest_Rhythm/'}>, env=<Storage {'SERVER_SOFTWARE': 'Rocket 1.2.6', 'sc...TTP_ACCEPT_ENCODING': 'gzip, deflate, sdch, br'}>, application='Rainforest_Rhythm', controller='default', function='player', args=[{'audio_id': 2L}], other='/%7B%27audio_id%27%3A%202L%7D', scheme=None, host=None, port=None, language=None)"
p211
sg85
S'map_url_out'
p212
sa(dp213
g62
S'/Users/dorme/Research/SAFE/Web2Py/web2py/gluon/rewrite.py'
p214
sg64
(dp215
S'self'
p216
S'<gluon.rewrite.MapUrlOut object>'
p217
sS'self.omit_acf'
p218
S'<bound method MapUrlOut.omit_acf of <gluon.rewrite.MapUrlOut object>>'
p219
ssg70
I1290
sg71
(dp220
I1285
S'    def acf(self):'
p221
sI1286
S'        """Converts components to /app/lang/controller/function"""'
p222
sI1287
S'        if not routers:'
p223
sI1288
S'            return None         # use regex filter'
p224
sI1289
S'        self.omit_lang()        # try to omit language'
p225
sI1290
S'        self.omit_acf()         # try to omit a/c/f'
p226
sI1291
S'        return self.build_acf()  # build and return the /a/lang/c/f string'
p227
sI1292
S''
sI1293
S''
sI1294
S'def map_url_in(request, env, app=False):'
p228
ssg83
S'(self=<gluon.rewrite.MapUrlOut object>)'
p229
sg85
S'acf'
p230
sa(dp231
g62
S'/Users/dorme/Research/SAFE/Web2Py/web2py/gluon/rewrite.py'
p232
sg64
(dp233
S'self.functions'
p234
S'set([])'
p235
sS'self'
p236
S'<gluon.rewrite.MapUrlOut object>'
p237
sS'applications'
p238
S"set(['BASE', 'Marking', 'Rainforest_Rhythm', 'SAFE_web', 'admin', 'examples', ...])"
p239
sS'self.args'
p240
S"[{'audio_id': 2L}]"
p241
sS'self.controllers'
p242
S"set(['appadmin', 'default', 'static'])"
p243
ssg70
I1239
sg71
(dp244
I1234
S'                if not applications or self.function in applications:'
p245
sI1235
S'                    self.omit_controller = False'
p246
sI1236
S'        if not self.controllers or self.function in self.controllers:'
p247
sI1237
S'            self.omit_controller = False'
p248
sI1238
S'        if self.args:'
p249
sI1239
S'            if self.args[0] in self.functions or self.args[0] in self.controllers or self.args[0] in applications:'
p250
sI1240
S'                self.omit_function = False'
p251
sI1241
S'        if self.omit_controller:'
p252
sI1242
S'            if self.function in self.controllers or self.function in applications:'
p253
sI1243
S'                self.omit_controller = False'
p254
ssg83
S'(self=<gluon.rewrite.MapUrlOut object>)'
p255
sg85
S'omit_acf'
p256
sasS'pyver'
p257
S'Python 2.7.11: /Library/Frameworks/Python.framework/Versions/2.7/Resources/Python.app/Contents/MacOS/Python (prefix: /Library/Frameworks/Python.framework/Versions/2.7)'
p258
sS'session'
p259
g57
(S's\x0b\n\x00\x00<div><table><tr><td style="font-weight:bold;vertical-align:top;">auth</td><td style="vertical-align:top;">:</td><td><div><table><tr><td style="font-weight:bold;vertical-align:top;">expiration</td><td style="vertical-align:top;">:</td><td><div>3600</div></td></tr><tr><td style="font-weight:bold;vertical-align:top;">hmac_key</td><td style="vertical-align:top;">:</td><td><div>d9164cd5-7f6f-487b-943b-914155591e3f</div></td></tr><tr><td style="font-weight:bold;vertical-align:top;">last_visit</td><td style="vertical-align:top;">:</td><td><div>datetime.datetime(2017, 2, 16, 13, 53, 51, 589821)</div></td></tr><tr><td style="font-weight:bold;vertical-align:top;">remember_me</td><td style="vertical-align:top;">:</td><td><div>False</div></td></tr><tr><td style="font-weight:bold;vertical-align:top;">user</td><td style="vertical-align:top;">:</td><td><div><table><tr><td style="font-weight:bold;vertical-align:top;">email</td><td style="vertical-align:top;">:</td><td><div>d.orme@imperial.ac.uk</div></td></tr><tr><td style="font-weight:bold;vertical-align:top;">first_name</td><td style="vertical-align:top;">:</td><td><div>David</div></td></tr><tr><td style="font-weight:bold;vertical-align:top;">id</td><td style="vertical-align:top;">:</td><td><div>1L</div></td></tr><tr><td style="font-weight:bold;vertical-align:top;">id_skill</td><td style="vertical-align:top;">:</td><td><div>2.0</div></td></tr><tr><td style="font-weight:bold;vertical-align:top;">last_name</td><td style="vertical-align:top;">:</td><td><div>Orme</div></td></tr><tr><td style="font-weight:bold;vertical-align:top;">registration_id</td><td style="vertical-align:top;">:</td><td><div></div></td></tr><tr><td style="font-weight:bold;vertical-align:top;">registration_key</td><td style="vertical-align:top;">:</td><td><div></div></td></tr><tr><td style="font-weight:bold;vertical-align:top;">reset_password_key</td><td style="vertical-align:top;">:</td><td><div></div></td></tr></table></div></td></tr><tr><td style="font-weight:bold;vertical-align:top;">user_groups</td><td style="vertical-align:top;">:</td><td><div><table></table></div></td></tr></table></div></td></tr><tr><td style="font-weight:bold;vertical-align:top;">flash</td><td style="vertical-align:top;">:</td><td><div>None</div></td></tr><tr><td style="font-weight:bold;vertical-align:top;">last_orderby</td><td style="vertical-align:top;">:</td><td><div>None</div></td></tr><tr><td style="font-weight:bold;vertical-align:top;">last_query</td><td style="vertical-align:top;">:</td><td><div>db.calls.id&gt;0</div></td></tr></table></div>'
tRp260
sS'etype'
p261
S"<type 'exceptions.TypeError'>"
p262
sS'date'
p263
S'Thu Feb 16 13:53:51 2017'
p264
sS'response'
p265
g57
(S's\xf4\x1d\x00\x00<div><table><tr><td style="font-weight:bold;vertical-align:top;">body</td><td style="vertical-align:top;">:</td><td><div>&lt;cStringIO.StringO object at 0x10ebaaed8&gt;</div></td></tr><tr><td style="font-weight:bold;vertical-align:top;">cookies</td><td style="vertical-align:top;">:</td><td><div><table><tr><td style="font-weight:bold;vertical-align:top;">session_id_rainforest_rhythm</td><td style="vertical-align:top;">:</td><td><div>127.0.0.1-91d5a12d-62db-48c2-b4db-51e947f8a8fa<table><tr><td style="font-weight:bold;vertical-align:top;">comment</td><td style="vertical-align:top;">:</td><td><div></div></td></tr><tr><td style="font-weight:bold;vertical-align:top;">domain</td><td style="vertical-align:top;">:</td><td><div></div></td></tr><tr><td style="font-weight:bold;vertical-align:top;">expires</td><td style="vertical-align:top;">:</td><td><div></div></td></tr><tr><td style="font-weight:bold;vertical-align:top;">httponly</td><td style="vertical-align:top;">:</td><td><div></div></td></tr><tr><td style="font-weight:bold;vertical-align:top;">max-age</td><td style="vertical-align:top;">:</td><td><div></div></td></tr><tr><td style="font-weight:bold;vertical-align:top;">path</td><td style="vertical-align:top;">:</td><td><div>/</div></td></tr><tr><td style="font-weight:bold;vertical-align:top;">secure</td><td style="vertical-align:top;">:</td><td><div></div></td></tr><tr><td style="font-weight:bold;vertical-align:top;">version</td><td style="vertical-align:top;">:</td><td><div></div></td></tr></table></div></td></tr></table></div></td></tr><tr><td style="font-weight:bold;vertical-align:top;">delimiters</td><td style="vertical-align:top;">:</td><td><div><table><tr><td><div>{{</div></td></tr><tr><td><div>}}</div></td></tr></table></div></td></tr><tr><td style="font-weight:bold;vertical-align:top;">files</td><td style="vertical-align:top;">:</td><td><div><table></table></div></td></tr><tr><td style="font-weight:bold;vertical-align:top;">flash</td><td style="vertical-align:top;">:</td><td><div></div></td></tr><tr><td style="font-weight:bold;vertical-align:top;">form_label_separator</td><td style="vertical-align:top;">:</td><td><div></div></td></tr><tr><td style="font-weight:bold;vertical-align:top;">formstyle</td><td style="vertical-align:top;">:</td><td><div>bootstrap3_inline</div></td></tr><tr><td style="font-weight:bold;vertical-align:top;">generic_patterns</td><td style="vertical-align:top;">:</td><td><div><table><tr><td><div>*</div></td></tr></table></div></td></tr><tr><td style="font-weight:bold;vertical-align:top;">google_analytics_id</td><td style="vertical-align:top;">:</td><td><div>None</div></td></tr><tr><td style="font-weight:bold;vertical-align:top;">headers</td><td style="vertical-align:top;">:</td><td><div><table><tr><td style="font-weight:bold;vertical-align:top;">X-Powered-By</td><td style="vertical-align:top;">:</td><td><div>web2py</div></td></tr></table></div></td></tr><tr><td style="font-weight:bold;vertical-align:top;">logo</td><td style="vertical-align:top;">:</td><td><div><a><img src="/Rainforest_Rhythm/static/images/logo-rainforest-rhythms-dark.png" /></a></div></td></tr><tr><td style="font-weight:bold;vertical-align:top;">menu</td><td style="vertical-align:top;">:</td><td><div><table><tr><td><div><table><tr><td><div>Home</div></td></tr><tr><td><div>False</div></td></tr><tr><td><div>/Rainforest_Rhythm</div></td></tr><tr><td><div><table></table></div></td></tr></table></div></td></tr></table></div></td></tr><tr><td style="font-weight:bold;vertical-align:top;">meta</td><td style="vertical-align:top;">:</td><td><div><table><tr><td style="font-weight:bold;vertical-align:top;">author</td><td style="vertical-align:top;">:</td><td><div>Your Name &lt;you@example.com&gt;</div></td></tr><tr><td style="font-weight:bold;vertical-align:top;">description</td><td style="vertical-align:top;">:</td><td><div>a cool new app</div></td></tr><tr><td style="font-weight:bold;vertical-align:top;">generator</td><td style="vertical-align:top;">:</td><td><div>Web2py Web Framework</div></td></tr><tr><td style="font-weight:bold;vertical-align:top;">keywords</td><td style="vertical-align:top;">:</td><td><div>web2py, python, framework</div></td></tr></table></div></td></tr><tr><td style="font-weight:bold;vertical-align:top;">models_to_run</td><td style="vertical-align:top;">:</td><td><div><table><tr><td><div>^\\w+\\.py$</div></td></tr><tr><td><div>^default/\\w+\\.py$</div></td></tr><tr><td><div>^default/player/\\w+\\.py$</div></td></tr></table></div></td></tr><tr><td style="font-weight:bold;vertical-align:top;">postprocessing</td><td style="vertical-align:top;">:</td><td><div><table></table></div></td></tr><tr><td style="font-weight:bold;vertical-align:top;">session_client</td><td style="vertical-align:top;">:</td><td><div>127.0.0.1</div></td></tr><tr><td style="font-weight:bold;vertical-align:top;">session_cookie_compression_level</td><td style="vertical-align:top;">:</td><td><div>None</div></td></tr><tr><td style="font-weight:bold;vertical-align:top;">session_cookie_expires</td><td style="vertical-align:top;">:</td><td><div>None</div></td></tr><tr><td style="font-weight:bold;vertical-align:top;">session_cookie_key</td><td style="vertical-align:top;">:</td><td><div>None</div></td></tr><tr><td style="font-weight:bold;vertical-align:top;">session_data_name</td><td style="vertical-align:top;">:</td><td><div>session_data_rainforest_rhythm</div></td></tr><tr><td style="font-weight:bold;vertical-align:top;">session_file</td><td style="vertical-align:top;">:</td><td><div>&lt;open file &#x27;/Users/dorme/Research/SAFE/Web2Py/web2py/applications/Rainforest_Rhythm/sessions/013/04e/127.0.0.1-91d5a12d-62db-48c2-b4db-51e947f8a8fa&#x27;, mode &#x27;rb+&#x27; at 0x10f908a50&gt;</div></td></tr><tr><td style="font-weight:bold;vertical-align:top;">session_filename</td><td style="vertical-align:top;">:</td><td><div>/Users/dorme/Research/SAFE/Web2Py/web2py/applications/Rainforest_Rhythm/sessions/127.0.0.1-91d5a12d-62db-48c2-b4db-51e947f8a8fa</div></td></tr><tr><td style="font-weight:bold;vertical-align:top;">session_hash</td><td style="vertical-align:top;">:</td><td><div>089e107da364dec5275fecb30b5d285e</div></td></tr><tr><td style="font-weight:bold;vertical-align:top;">session_id</td><td style="vertical-align:top;">:</td><td><div>127.0.0.1-91d5a12d-62db-48c2-b4db-51e947f8a8fa</div></td></tr><tr><td style="font-weight:bold;vertical-align:top;">session_id_name</td><td style="vertical-align:top;">:</td><td><div>session_id_rainforest_rhythm</div></td></tr><tr><td style="font-weight:bold;vertical-align:top;">session_locked</td><td style="vertical-align:top;">:</td><td><div>True</div></td></tr><tr><td style="font-weight:bold;vertical-align:top;">session_masterapp</td><td style="vertical-align:top;">:</td><td><div>Rainforest_Rhythm</div></td></tr><tr><td style="font-weight:bold;vertical-align:top;">session_new</td><td style="vertical-align:top;">:</td><td><div>False</div></td></tr><tr><td style="font-weight:bold;vertical-align:top;">session_storage_type</td><td style="vertical-align:top;">:</td><td><div>file</div></td></tr><tr><td style="font-weight:bold;vertical-align:top;">status</td><td style="vertical-align:top;">:</td><td><div>200</div></td></tr><tr><td style="font-weight:bold;vertical-align:top;">subtitle</td><td style="vertical-align:top;">:</td><td><div></div></td></tr><tr><td style="font-weight:bold;vertical-align:top;">title</td><td style="vertical-align:top;">:</td><td><div>Rainforest Rhythm</div></td></tr><tr><td style="font-weight:bold;vertical-align:top;">view</td><td style="vertical-align:top;">:</td><td><div>default/player.html</div></td></tr></table></div>'
tRp266
sS'locals'
p267
(dp268
S'default_controller'
p269
S"'default'"
p270
sS'applications'
p271
S"set(['BASE', 'Marking', 'Rainforest_Rhythm', 'SAFE_web', 'admin', 'examples', ...])"
p272
sS'self'
p273
S'<gluon.rewrite.MapUrlOut object>'
p274
sS'default_application'
p275
S"'SAFE_web'"
p276
sS'router'
p277
S"<Storage {'_acfe_match': <_sre.SRE_Pattern objec..._match': '([-+=@$%\\\\w]|(?<=[-+=@$%\\\\w])[./])*$'}>"
p278
sssS'traceback'
p279
S'Traceback (most recent call last):\n  File "/Users/dorme/Research/SAFE/Web2Py/web2py/gluon/restricted.py", line 227, in restricted\n    exec ccode in environment\n  File "/Users/dorme/Research/SAFE/Web2Py/web2py/applications/Rainforest_Rhythm/controllers/default.py", line 366, in <module>\n  File "/Users/dorme/Research/SAFE/Web2Py/web2py/gluon/globals.py", line 412, in <lambda>\n    self._caller = lambda f: f()\n  File "/Users/dorme/Research/SAFE/Web2Py/web2py/applications/Rainforest_Rhythm/controllers/default.py", line 49, in player\n    _href=URL(\'default\',\'player\', args={\'audio_id\':record.next_part}))\n  File "/Users/dorme/Research/SAFE/Web2Py/web2py/gluon/html.py", line 402, in URL\n    args, other, scheme, host, port, language=language)\n  File "/Users/dorme/Research/SAFE/Web2Py/web2py/gluon/rewrite.py", line 195, in url_out\n    function, args, other, scheme, host, port, language)\n  File "/Users/dorme/Research/SAFE/Web2Py/web2py/gluon/rewrite.py", line 1364, in map_url_out\n    return map.acf()\n  File "/Users/dorme/Research/SAFE/Web2Py/web2py/gluon/rewrite.py", line 1290, in acf\n    self.omit_acf()         # try to omit a/c/f\n  File "/Users/dorme/Research/SAFE/Web2Py/web2py/gluon/rewrite.py", line 1239, in omit_acf\n    if self.args[0] in self.functions or self.args[0] in self.controllers or self.args[0] in applications:\nTypeError: unhashable type: \'dict\'\n'
p280
s.