(dp1
S'output'
p2
S"<type 'exceptions.NameError'> name 'rows' is not defined"
p3
sS'layer'
p4
S'/Users/dorme/Research/SAFE/Web2Py/web2py/applications/Rainforest_Rhythm/views/default/player.html'
p5
sS'code'
p6
S'response.write(\'<!DOCTYPE html>\\n<!--[if (gt IE 9)|!(IE)]><!--> <html class="no-js" lang="\', escape=False)\nresponse.write(T.accepted_language or \'en\')\nresponse.write(\'"> <!--<![endif]-->\\n  <head>\\n    <meta charset="utf-8">\\n    <!-- www.phpied.com/conditional-comments-block-downloads/ -->\\n    <!-- Always force latest IE rendering engine\\n         (even in intranet) & Chrome Frame\\n         Remove this if you use the .htaccess -->\\n    <meta http-equiv="X-UA-Compatible" content="IE=edge\', escape=False)\nresponse.write(not request.is_local and \',chrome=1\' or \'\')\nresponse.write(\'">\\n    <!--  Mobile Viewport Fix\\n          j.mp/mobileviewport & davidbcalhoun.com/2010/viewport-metatag\\n          device-width: Occupy full width of the screen in its current orientation\\n          initial-scale = 1.0 retains dimensions instead of zooming out if page height > device height\\n          user-scalable = yes allows the user to zoom in -->\\n    <meta name="viewport" content="width=device-width, initial-scale=1.0">\\n    <title>\', escape=False)\nresponse.write(response.title or request.application)\nresponse.write(\'</title>\\n    <!-- http://dev.w3.org/html5/markup/meta.name.html -->\\n    <meta name="application-name" content="\', escape=False)\nresponse.write(request.application)\nresponse.write(\'">\\n    <!-- Speaking of Google, don\\\'t forget to set your site up:\\n         http://google.com/webmasters -->\\n    <meta name="google-site-verification" content="">\\n    <!-- include stylesheets -->\\n    <link rel="stylesheet" href="\', escape=False)\nresponse.write(URL(\'static\',\'css/bootstrap.min.css\'))\nresponse.write(\'"/>\\n    <link rel="stylesheet" href="\', escape=False)\nresponse.write(URL(\'static\',\'css/web2py-bootstrap3.css\'))\nresponse.write(\'"/>\\n    <!-- stylesheet to set local preferences -->\\n    <link rel="stylesheet" href="\', escape=False)\nresponse.write(URL(\'static\',\'css/main.css\'))\nresponse.write(\'"/>\\n    <link rel="shortcut icon" href="\', escape=False)\nresponse.write(URL(\'static\',\'images/favicon.ico\'))\nresponse.write(\'" type="image/x-icon">\\n    <link rel="apple-touch-icon" href="\', escape=False)\nresponse.write(URL(\'static\',\'images/favicon.png\'))\nresponse.write(\'">\\n    <!-- All JavaScript at the bottom, except for Modernizr which enables\\n         HTML5 elements & feature detects -->\\n    <script src="\', escape=False)\nresponse.write(URL(\'static\',\'js/modernizr-2.8.3.min.js\'))\nresponse.write(\'"></script>\\n    <!--[if lt IE 9]>\\n        <script src="\', escape=False)\nresponse.write(URL(\'static\',\'js/respond-1.4.2.min.js\'))\nresponse.write(\'"></script>\\n        <![endif]-->\\n    <!-- Favicons -->\\n    \', escape=False)\nresponse.write(\'<script type="text/javascript"><!--\\n    // These variables are used by the web2py_ajax_init function in web2py_ajax.js (which is loaded below).\\n    var w2p_ajax_confirm_message = "\', escape=False)\nresponse.write(T(\'Are you sure you want to delete this object?\'))\nresponse.write(\'";\\n    var w2p_ajax_disable_with_message = "\', escape=False)\nresponse.write(T(\'Working...\'))\nresponse.write(\'";\\n    var w2p_ajax_date_format = "\', escape=False)\nresponse.write(T(\'%Y-%m-%d\'))\nresponse.write(\'";\\n    var w2p_ajax_datetime_format = "\', escape=False)\nresponse.write(T(\'%Y-%m-%d %H:%M:%S\'))\nresponse.write(\'";\\n    var ajax_error_500 = \\\'\', escape=False)\nresponse.write(T.M(\'An error occured, please [[reload %s]] the page\') % URL(args=request.args, vars=request.get_vars))\nresponse.write("\'\\n    //--></script>\\n", escape=False)\nresponse.files.insert(0,URL(\'static\',\'js/jquery.js\'))\nresponse.files.insert(1,URL(\'static\',\'css/calendar.css\'))\nresponse.files.insert(2,URL(\'static\',\'js/calendar.js\'))\nresponse.files.insert(3,URL(\'static\',\'js/web2py.js\'))\nresponse.include_meta()\nresponse.include_files()\nresponse.write(\'\\n\', escape=False)\nresponse.write(\' <!-- this includes jquery.js, calendar.js/.css and web2py.js -->\\n    \', escape=False)\nresponse.write(\'\\n    \', escape=False)\n# using sidebars need to know what sidebar you want to use\nmc0 = \'col-md-12\'\nmc1 = \'col-md-9\'\nmc2 = \'col-md-6\'\nleft_sidebar_enabled = globals().get(\'left_sidebar_enabled\', False)\nright_sidebar_enabled = globals().get(\'right_sidebar_enabled\', False)\nmiddle_column = {0: mc0, 1: mc1, 2: mc2}[\n(left_sidebar_enabled and 1 or 0)+(right_sidebar_enabled and 1 or 0)]\nresponse.write(\'\\n  </head>\\n  <body>\\n\\n    <!-- Navbar ======================================= -->\\n    <nav class="navbar navbar-default navbar-fixed-top" role="navigation">\\n      <div class="container-fluid">\\n        <div class="navbar-header">\\n          <button type="button" class="navbar-toggle" data-toggle="collapse" data-target=".navbar-collapse">\\n            <span class="sr-only">Toggle navigation</span>\\n            <span class="icon-bar"></span>\\n            <span class="icon-bar"></span>\\n            <span class="icon-bar"></span>\\n          </button>\\n          \', escape=False)\nresponse.write(response.logo or \'\')\nresponse.write(\'\\n        </div>\\n        <div class="collapse navbar-collapse navbar-ex1-collapse">\\n          <ul class="nav navbar-nav navbar-right">\\n            \', escape=False)\nresponse.write(\'auth\' in globals() and auth.navbar(\'Welcome\',mode=\'dropdown\') or \'\')\nresponse.write(\'\\n          </ul>\\n          \', escape=False)\nif response.menu:\n    response.write(\'\\n          \', escape=False)\n    response.write(MENU(response.menu, _class=\'nav navbar-nav\',li_class=\'dropdown\',ul_class=\'dropdown-menu\'))\n    response.write(\'\\n          \', escape=False)\n    pass\nresponse.write(\'\\n        </div>\\n      </div>\\n    </nav>\\n    <!-- Masthead ===================================== -->    \\n    \', escape=False)\nresponse.write(\'\\n    \', escape=False)\nresponse.write("\\n    <!-- kludgy spacer -->\\n    <div class=\'container\' style=\'min-height:100px\'></div>\\n    \\n    <!-- The content -->\\n    \\n    ", escape=False)\nresponse.write(\'\\n    \', escape=False)\nresponse.write(\'\\n\\t\\t\\n\\t\\t<!-- Player panel -->\\n\\t\\t<div class="container">\\n\\t\\t<div class="panel panel-default wavepanel">\\n\\t\\t\\t<div class="panel-heading panel-warning">\\n\\t\\t\\t\\t<div class=\\\'row\\\'>\\n\\t\\t\\t\\t\\t\\t<!-- A form to capture new regions -->\\n\\t\\t\\t\\t\\t\\t<div class=\\\'col-sm-4\\\' style="text-align: center">\\n\\t\\t\\t\\t\\t\\t\\t\\t<form id="callform" action="\', escape=False)\nresponse.write(URL(\'default\',\'create_call\'))\nresponse.write(\'" method="post">\\n\\t\\t\\t\\t\\t\\t\\t\\t\\t\', escape=False)\nresponse.write(INPUT(_type="hidden", _name="audio_id", _value=record.id))\nresponse.write(\'\\n\\t\\t\\t\\t\\t\\t\\t\\t\\t<input id=\\\'newcall\\\' class=\\\'btn btn-primary btn-sm\\\' value="Create Call" type="submit" disabled/>\\n\\t\\t\\t\\t\\t\\t\\t\\t</form>\\n\\t\\t\\t\\t\\t\\t</div>\\n\\t\\t\\t\\t\\t\\t<div class=\\\'col-sm-4\\\' style="text-align: center">\\n\\t\\t\\t\\t\\t\\t\\t\\t<button id=\\\'play\\\' class="btn btn-primary btn-sm" onclick="wavesurfer.playPause()" style=\\\'width:70px\\\'>\\n\\t\\t\\t\\t\\t\\t\\t\\t\\t<i class="glyphicon glyphicon-play"></i> Play\\n\\t\\t\\t\\t\\t\\t\\t\\t</button>\\n\\t\\t\\t\\t\\t\\t</div>\\n\\t\\t\\t\\t\\t<div class=\\\'col-sm-4\\\' style="text-align: center">\\n\\t\\t\\t\\t\\t\\t\\t\\t<button id="zoomin" type="button" class="btn btn-primary btn-sm">\\n\\t\\t\\t\\t\\t\\t\\t\\t\\t\\t<i class="glyphicon glyphicon-plus"></i>\\n\\t\\t\\t\\t\\t\\t\\t\\t</button>\\n\\t\\t\\t\\t\\t\\t\\t\\t&nbsp;Zoom&nbsp;\\n\\t\\t\\t\\t\\t\\t\\t\\t<button id="zoomout" type="button" class="btn btn-primary btn-sm">\\n\\t\\t\\t\\t\\t\\t\\t\\t\\t\\t<i class="glyphicon glyphicon-minus"></i>\\n\\t\\t\\t\\t\\t\\t\\t\\t</button>\\n\\t\\t\\t\\t\\t</div>\\n\\t\\t\\t\\t</div>\\n\\t\\t\\t</div>\\n\\t\\t\\t<div class="panel-body">\\n\\t\\t\\t\\t<div class=\\\'row\\\'>\\n\\t\\t\\t\\t<div class="col-sm-12">\\n\\t\\t\\t\\t\\t<div id="waveform"></div>\\n\\t\\t\\t\\t\\t<div id="waveform-timeline"></div>\\n\\t\\t\\t\\t</div>\\n\\t\\t\\t\\t</div>\\n\\t\\t\\t</div>\\n\\t\\t\\t\\n\\t\\t\\t<div class="panel-footer">\\n\\t\\t\\t\\t<div class=\\\'row\\\'>\\n\\t\\t\\t\\t\\t\\t<div class=\\\'col-sm-9\\\'>\', escape=False)\nresponse.write(record.filename)\nresponse.write("</div>\\n\\t\\t\\t\\t\\t\\t<div class=\'col-sm-3 text-right\'>\\n\\t\\t\\t\\t\\t\\t\\t", escape=False)\nresponse.write(backward_link)\nresponse.write(\'\\n\\t\\t\\t\\t\\t\\t\\t\', escape=False)\nresponse.write(\'{}/{}\'.format(record.part_number, record.number_of_parts))\nresponse.write(\'\\n\\t\\t\\t\\t\\t\\t\\t\', escape=False)\nresponse.write(forward_link)\nresponse.write(\'\\n\\t\\t\\t\\t\\t\\t</div>\\n\\t\\t\\t\\t</div>\\n\\t\\t\\t</div>\\n\\t\\t</div>\\n\\t\\t</div>\\n\\t\\t\\n\\t\\t\', escape=False)\nresponse.write(calls_block)\nresponse.write(\'\\n\\t\\t\\n\\t\\t\\n\\t\\t<!-- Now declare a block of javascript to control the player, which will be inserted\\n\\t\\tinto the layout at the page_js markers, in the right place below the main JS loads -->\\n\\n\\t\\t\', escape=False)\nresponse.write(\'\\n\\t\\t\', escape=False)\nresponse.write(\'\\n    \', escape=False)\nresponse.write(\'\\n\\n    <!-- The javascript -->\\n    <script src="\', escape=False)\nresponse.write(URL(\'static\',\'js/bootstrap.min.js\'))\nresponse.write(\'"></script>\\n    <script src="\', escape=False)\nresponse.write(URL(\'static\',\'js/web2py-bootstrap3.js\'))\nresponse.write(\'"></script>\\n    <script src="\', escape=False)\nresponse.write(URL(\'static\',\'js/rainbowvis.js\'))\nresponse.write(\'"></script>\\n    <script src="http://cdnjs.cloudflare.com/ajax/libs/wavesurfer.js/1.0.52/wavesurfer.min.js"></script>\\n    <script src="https://cdnjs.cloudflare.com/ajax/libs/wavesurfer.js/1.2.3/plugin/wavesurfer.timeline.min.js"></script>\\n    <script src="https://cdnjs.cloudflare.com/ajax/libs/wavesurfer.js/1.2.3/plugin/wavesurfer.regions.min.js"></script>\\n\\t\\n    \', escape=False)\nresponse.write(\'\\n\\t\\t<script type="text/javascript">\\n\\t\\t\\n\\t\\tvar wavesurfer = WaveSurfer.create({\\n\\t\\t\\t\\tcontainer: \\\'#waveform\\\',\\n\\t\\t\\t\\tscrollParent: true,\\n\\t\\t\\t\\tminimap: true,\\n\\t\\t\\t\\tnormalise: true,\\n\\t\\t\\t\\tminPxPerSec: 10,\\n\\t\\t\\t\\tautocenter: false,\\n\\t\\t\\t\\t// barWidth: 1\\n\\t\\t});\\n\\t\\t\\n\\t\\t/**\\n\\t\\t * Load regions from database\\n\\t\\t */\\n\\t\\t\\n\\t\\tregions = JSON.parse(\\\'\', escape=False)\nresponse.write(XML(rows))\nresponse.write(\'\\\');\\n\\t\\t\\n\\t\\t// Function to add existing regions from a JSON object, to be created\\n\\t\\t// from the DB, and make sure their location is locked down.\\n\\t\\tfunction loadLockedRegions(regions) {\\n\\t\\t\\t\\tregions.forEach(function (region) {\\n\\t\\t\\t\\t\\t\\tregion.drag = false;\\n\\t\\t\\t\\t\\t\\tregion.resize = false;\\n\\t\\t\\t\\t\\t\\twavesurfer.addRegion(region);\\n\\t\\t\\t\\t});\\n\\t\\t}\\n\\t\\t\\n\\t\\t// Load the requested sample and its peaks (uses jQuery)\\n\\t\\t//peaks = $.getJSON("\', escape=False)\nresponse.write(URL(\'static\',\'/audio/SM300545_0+1_20150909_134611_1.json\'))\nresponse.write(\'");\\n\\t\\t//wavesurfer.load("\', escape=False)\nresponse.write(URL(\'static\',\'/audio/SM300545_0+1_20150909_134611_1.mp3\'))\nresponse.write(\'", peaks.responseJSON);\\n\\t\\twavesurfer.load("\', escape=False)\nresponse.write(URL(\'static\', record.static_filepath))\nresponse.write(\'");\\n\\t\\t\\n\\t\\t// Store the default zoom level in the wavesurfer\\n\\t\\twavesurfer.zoomLevel = 25;\\n\\t\\t\\n\\t\\t// When the load completes, do the following actions\\n\\t\\twavesurfer.on(\\\'ready\\\', function () {\\n\\t\\t\\t\\t\\n\\t\\t\\t\\t// set the default zoom level \\n\\t\\t\\t\\twavesurfer.zoom(wavesurfer.zoomLevel);\\n\\t\\t\\t\\t\\n\\t\\t\\t\\t// Enable creating regions by dragging\\n\\t\\t\\t\\twavesurfer.enableDragSelection({\\n\\t\\t\\t\\t\\tdrag: true,\\n\\t\\t\\t\\t\\tresize: true,\\n\\t\\t\\t\\t\\tcolor: "rgba(255,0,0,0.2)"\\n\\t\\t\\t\\t});\\n\\t\\t\\t\\t\\n\\t\\t\\t\\t//Initialise the timeline\\n\\t\\t\\t\\tvar timeline = Object.create(WaveSurfer.Timeline);\\n\\t\\t\\t\\t\\n\\t\\t\\t\\ttimeline.init({\\n\\t\\t\\t\\t\\twavesurfer: wavesurfer,\\n\\t\\t\\t\\t\\tcontainer: \\\'#waveform-timeline\\\'\\n\\t\\t\\t\\t});\\n\\t\\t\\t\\t\\n\\t\\t\\t\\t//Example code to add individual locked region\\n\\t\\t\\t\\t// wavesurfer.addRegion({\\n\\t\\t\\t\\t//\\t start: 8,\\n\\t\\t\\t\\t//\\t end: 14,\\n\\t\\t\\t\\t//\\t color: \\\'hsla(200, 100%, 30%, 0.1)\\\',\\n\\t\\t\\t\\t//\\t drag:false,\\n\\t\\t\\t\\t//\\t resize: false\\n\\t\\t\\t\\t// });\\n\\t\\t\\t\\t\\n\\t\\t\\t\\t// Load the existing regions from the DB\\n\\t\\t\\t\\tloadLockedRegions(regions);\\n\\t\\t\\t\\t\\n\\t\\t});\\n\\t\\t\\n\\t\\t// Code to switch the label on the play button \\n\\t\\t// This will fire with a click on the button or\\n\\t\\t// if the space button is used to pause and play.\\n\\t\\twavesurfer.on(\\\'pause\\\', function () {\\n\\t\\t\\t\\t$(\\\'#play\\\')[0].innerHTML = "<i class=\\\'glyphicon glyphicon-play\\\'></i> Play";\\n\\t\\t});\\n\\t\\t\\n\\t\\twavesurfer.on(\\\'play\\\', function () {\\n\\t\\t\\t\\t$(\\\'#play\\\')[0].innerHTML = "<i class=\\\'glyphicon glyphicon-pause\\\'></i> Pause";\\n\\t\\t});\\n\\t\\t\\n\\t\\t// Control the zoom level\\n\\n\\t\\t$(\\\'#zoomout\\\').click(function(){\\n\\t\\t\\twavesurfer.zoomLevel = wavesurfer.zoomLevel - 5\\n\\t\\t\\twavesurfer.zoom(wavesurfer.zoomLevel);\\n\\t\\t});\\n\\n\\t\\t$(\\\'#zoomin\\\').click(function(){\\n\\t\\t\\twavesurfer.zoomLevel = wavesurfer.zoomLevel + 5\\n\\t\\t\\twavesurfer.zoom(wavesurfer.zoomLevel);\\n\\t\\t});\\n\\n\\t\\t\\n\\t\\t// Code to handle creating a new call region and\\n\\t\\t// making sure only one new region is highlighted\\n\\t\\t// at any one time. Creating a new region currently\\n\\t\\t// submits to the server DB and reloads the whole page \\n\\t\\t// (which has the side effect of clearing any new region)\\n\\t\\t\\n\\t\\tvar createdRegion = null;\\n\\t\\t\\n\\t\\twavesurfer.on(\\\'region-created\\\', function(newRegion) {\\n\\t\\t\\t\\t\\tif (newRegion.attributes[\\\'type\\\'] == \\\'fixed\\\') {\\n\\t\\t\\t\\t\\t\\t// do nothing when creating existing regions\\n\\t\\t\\t\\t\\t} else if (createdRegion) {\\n\\t\\t\\t\\t\\t\\tcreatedRegion.remove()\\n\\t\\t\\t\\t\\t\\tcreatedRegion = newRegion\\n\\t\\t\\t\\t\\t\\t$(\\\'#newcall\\\').prop(\\\'disabled\\\', false);\\n\\t\\t\\t\\t\\t} else {\\n\\t\\t\\t\\t\\t\\tcreatedRegion = newRegion\\n\\t\\t\\t\\t\\t\\t$(\\\'#newcall\\\').prop(\\\'disabled\\\', false);\\n\\t\\t\\t\\t\\t};\\n\\t\\t});\\n\\t\\t\\n\\t\\t// Action to append data from a new regions when the new region\\n\\t\\t// form is submitted and to make the create button inactive\\n\\t\\t$(\\\'#newcall\\\').click(function(){\\n\\t\\t\\t\\t$(\\\'#callform\\\').append(\\\'<input type="hidden" name="start" value="\\\'+ createdRegion.start +\\\'" id="id">\\\')\\n\\t\\t\\t\\t$(\\\'#callform\\\').append(\\\'<input type="hidden" name="end" value="\\\'+ createdRegion.end +\\\'" id="id">\\\')\\n\\t\\t});\\n\\t\\t\\n\\t\\t// Code to control the display of call region information \\n\\t\\t// when played or selected using the mouse\\n\\t\\t\\n\\t\\t// Actions to show region information while playback passes \\n\\t\\t// through a region\\n\\t\\twavesurfer.on(\\\'region-in\\\', function(region) {\\n\\t\\t\\t\\tcall_info = \\\'#call\\\' + region.id\\n\\t\\t\\t\\t$(call_info).collapse(\\\'show\\\', parent=\\\'#calls\\\', toggle=\\\'collapse\\\');\\n\\t\\t});\\n\\t\\t\\n\\t\\twavesurfer.on(\\\'region-out\\\', function(region) {\\n\\t\\t\\t\\tcall_info = \\\'#call\\\' + region.id\\n\\t\\t\\t\\t$(call_info).collapse(\\\'hide\\\', parent=\\\'#calls\\\', toggle=\\\'collapse\\\');\\n\\t\\t});\\n\\t\\t\\n\\t\\t// Action to show region information when playback is positioned\\n\\t\\t// using a mouse click - needs to handle overlapping layers where the\\n\\t\\t// region-click event only handles some notion of the uppermost layer.\\n\\t\\t// The seek event also fires off when the player is first ready , which is\\n\\t\\t// before the regions are loaded so need to catch that\\n\\t\\t\\n\\t\\twavesurfer.on(\\\'seek\\\', function(position) {\\n\\t\\t\\t\\tvar seekTime = position * wavesurfer.getDuration();\\n\\t\\t\\t\\t\\n\\t\\t\\t\\t// loop the regions\\n\\t\\t\\t\\tif (wavesurfer.regions){\\n\\t\\t\\t\\t\\t\\tfor (r in wavesurfer.regions.list){\\n\\t\\t\\t\\t\\t\\t\\t\\tstart = wavesurfer.regions.list[r][\\\'start\\\'];\\n\\t\\t\\t\\t\\t\\t\\t\\tend = wavesurfer.regions.list[r][\\\'end\\\'];\\n\\t\\t\\t\\t\\t\\t\\t\\tcall_info = \\\'#call\\\' + r;\\n\\t\\t\\t\\t\\t\\t\\t\\tif (start <= seekTime && end >= seekTime) {\\n\\t\\t\\t\\t\\t\\t\\t\\t\\t\\t$(call_info).collapse(\\\'show\\\', parent=\\\'#calls\\\', toggle=\\\'collapse\\\');\\n\\t\\t\\t\\t\\t\\t\\t\\t} else {\\n\\t\\t\\t\\t\\t\\t\\t\\t\\t\\t$(call_info).collapse(\\\'hide\\\', parent=\\\'#calls\\\', toggle=\\\'collapse\\\');\\n\\t\\t\\t\\t\\t\\t\\t\\t}\\n\\t\\t\\t\\t\\t\\t}\\n\\t\\t\\t\\t}\\n\\t\\t});\\n\\n\\t\\t// Action to play calls - triggers on any play_call_ button being \\n\\t\\t// pressed and then retrieves the region ID and plays it\\n\\t\\t\\n\\t\\t$(\\\'[id^=play_call_]\\\').click(function(){\\n\\t\\t\\t// get the region id from the id of the clicked button\\n\\t\\t\\tvar id = $(this).attr("id").slice(10);\\n\\t\\t\\treg = wavesurfer.regions.list[id]\\n\\t\\t\\t// Use the wavesurfer play not the region play, because\\n\\t\\t\\t// that allows us to hack the end time to avoid hitting\\n\\t\\t\\t// the end of the region and triggering the region-out\\n\\t\\t\\t// event (which hides the call info)\\n\\t\\t\\t// TODO - colour change to highlight\\n\\t\\t\\t//reg.update({color: \\\'hsla(200, 100%, 30%, 0.1)\\\'});\\n\\t\\t\\twavesurfer.play(reg[\\\'start\\\'], reg[\\\'end\\\'] - 0.01)\\n\\t\\t\\t//reg.update({color: \\\'rgba(0, 0, 0, 0.1)\\\'});\\n\\t\\t});\\n\\t\\t\\n\\t\\t// Functions to highlight individual calls\\n\\t\\tfunction highlight_call(x) {\\n\\t\\t\\tvar id = $(x).attr("id").slice(10);\\n\\t\\t\\treg = wavesurfer.regions.list[id]\\n\\t\\t\\treg.update({color: \\\'rgba(100, 255, 100, 0.2)\\\'});\\n\\t\\t}\\n\\n\\t\\tfunction dehighlight_call(x) {\\n\\t\\t\\tvar id = $(x).attr("id").slice(10);\\n\\t\\t\\treg = wavesurfer.regions.list[id]\\n\\t\\t\\treg.update({color: \\\'rgba(0, 0, 0, 0.1)\\\'});\\n\\t\\t}\\n\\t\\t\\n\\t\\t// Create the rainbow to be used to colour vote bars\\n\\t\\tvar rainbow = new Rainbow();\\n\\t\\trainbow.setSpectrum(\\\'#d7191c\\\',\\\'#fdae61\\\',\\\'#abd9e9\\\',\\\'#2c7bb6\\\');\\n\\t\\n\\t\\twindow.onload = function(){\\n\\t\\t\\n\\t\\t\\t// Coloring the vote bars using rainbowvis\\n\\t\\t\\tvar bars = document.getElementsByClassName(\\\'progress-bar\\\');\\n\\t\\t\\tfor(var i = 0; i < bars.length; i++)\\n\\t\\t\\t{\\n\\t\\t\\t\\t//convert the width to a float\\n\\t\\t\\t\\tvar width = parseFloat(bars[i].style.width)\\n\\t\\t\\t\\tbars[i].style.backgroundColor = \\\'#\\\' + rainbow.colourAt(width)\\n\\t\\t\\t}\\n\\t\\t\\n\\t\\t}\\n\\t\\t\\n\\t\\t</script>\\n\\t\\t\', escape=False)\nresponse.write(\'\\n\\t\\n  </body>\\n  \\n  \\n  \\n</html>\\n\', escape=False)'
p7
sS'snapshot'
p8
(dp9
S'exception'
p10
(dp11
S'__hash__'
p12
S"<method-wrapper '__hash__' of exceptions.NameError object>"
p13
sS'__setattr__'
p14
S"<method-wrapper '__setattr__' of exceptions.NameError object>"
p15
sS'__reduce_ex__'
p16
S'<built-in method __reduce_ex__ of exceptions.NameError object>'
p17
sS'__getslice__'
p18
S"<method-wrapper '__getslice__' of exceptions.NameError object>"
p19
sS'__getitem__'
p20
S"<method-wrapper '__getitem__' of exceptions.NameError object>"
p21
sS'__setstate__'
p22
S'<built-in method __setstate__ of exceptions.NameError object>'
p23
sS'args'
p24
S'("name \'rows\' is not defined",)'
p25
sS'__reduce__'
p26
S'<built-in method __reduce__ of exceptions.NameError object>'
p27
sS'__str__'
p28
S"<method-wrapper '__str__' of exceptions.NameError object>"
p29
sS'__format__'
p30
S'<built-in method __format__ of exceptions.NameError object>'
p31
sS'__getattribute__'
p32
S"<method-wrapper '__getattribute__' of exceptions.NameError object>"
p33
sS'__class__'
p34
S"<type 'exceptions.NameError'>"
p35
sS'__unicode__'
p36
S'<built-in method __unicode__ of exceptions.NameError object>'
p37
sS'__delattr__'
p38
S"<method-wrapper '__delattr__' of exceptions.NameError object>"
p39
sS'__subclasshook__'
p40
S'<built-in method __subclasshook__ of type object>'
p41
sS'__repr__'
p42
S"<method-wrapper '__repr__' of exceptions.NameError object>"
p43
sS'__dict__'
p44
S'{}'
p45
sS'__sizeof__'
p46
S'<built-in method __sizeof__ of exceptions.NameError object>'
p47
sS'__doc__'
p48
S"'Name not found globally.'"
p49
sS'__init__'
p50
S"<method-wrapper '__init__' of exceptions.NameError object>"
p51
sS'__new__'
p52
S'<built-in method __new__ of type object>'
p53
ssS'evalue'
p54
S"name 'rows' is not defined"
p55
sS'request'
p56
cgluon.html
XML_unpickle
p57
(S's\xe1X\x00\x00<div><table><tr><td style="font-weight:bold;vertical-align:top;">ajax</td><td style="vertical-align:top;">:</td><td><div>False</div></td></tr><tr><td style="font-weight:bold;vertical-align:top;">application</td><td style="vertical-align:top;">:</td><td><div>Rainforest_Rhythm</div></td></tr><tr><td style="font-weight:bold;vertical-align:top;">args</td><td style="vertical-align:top;">:</td><td><div><table></table></div></td></tr><tr><td style="font-weight:bold;vertical-align:top;">cid</td><td style="vertical-align:top;">:</td><td><div>None</div></td></tr><tr><td style="font-weight:bold;vertical-align:top;">client</td><td style="vertical-align:top;">:</td><td><div>127.0.0.1</div></td></tr><tr><td style="font-weight:bold;vertical-align:top;">controller</td><td style="vertical-align:top;">:</td><td><div>default</div></td></tr><tr><td style="font-weight:bold;vertical-align:top;">cookies</td><td style="vertical-align:top;">:</td><td><div><table><tr><td style="font-weight:bold;vertical-align:top;">session_id_admin</td><td style="vertical-align:top;">:</td><td><div>127.0.0.1-ad0ae3f9-0307-4d77-8dff-02b7f4d47f4d<table><tr><td style="font-weight:bold;vertical-align:top;">comment</td><td style="vertical-align:top;">:</td><td><div></div></td></tr><tr><td style="font-weight:bold;vertical-align:top;">domain</td><td style="vertical-align:top;">:</td><td><div></div></td></tr><tr><td style="font-weight:bold;vertical-align:top;">expires</td><td style="vertical-align:top;">:</td><td><div></div></td></tr><tr><td style="font-weight:bold;vertical-align:top;">httponly</td><td style="vertical-align:top;">:</td><td><div></div></td></tr><tr><td style="font-weight:bold;vertical-align:top;">max-age</td><td style="vertical-align:top;">:</td><td><div></div></td></tr><tr><td style="font-weight:bold;vertical-align:top;">path</td><td style="vertical-align:top;">:</td><td><div></div></td></tr><tr><td style="font-weight:bold;vertical-align:top;">secure</td><td style="vertical-align:top;">:</td><td><div></div></td></tr><tr><td style="font-weight:bold;vertical-align:top;">version</td><td style="vertical-align:top;">:</td><td><div></div></td></tr></table></div></td></tr><tr><td style="font-weight:bold;vertical-align:top;">session_id_rainforest_rhythm</td><td style="vertical-align:top;">:</td><td><div>127.0.0.1-97b81f58-ac39-4ff7-9ffd-5e44f6ff9431<table><tr><td style="font-weight:bold;vertical-align:top;">comment</td><td style="vertical-align:top;">:</td><td><div></div></td></tr><tr><td style="font-weight:bold;vertical-align:top;">domain</td><td style="vertical-align:top;">:</td><td><div></div></td></tr><tr><td style="font-weight:bold;vertical-align:top;">expires</td><td style="vertical-align:top;">:</td><td><div></div></td></tr><tr><td style="font-weight:bold;vertical-align:top;">httponly</td><td style="vertical-align:top;">:</td><td><div></div></td></tr><tr><td style="font-weight:bold;vertical-align:top;">max-age</td><td style="vertical-align:top;">:</td><td><div></div></td></tr><tr><td style="font-weight:bold;vertical-align:top;">path</td><td style="vertical-align:top;">:</td><td><div></div></td></tr><tr><td style="font-weight:bold;vertical-align:top;">secure</td><td style="vertical-align:top;">:</td><td><div></div></td></tr><tr><td style="font-weight:bold;vertical-align:top;">version</td><td style="vertical-align:top;">:</td><td><div></div></td></tr></table></div></td></tr></table></div></td></tr><tr><td style="font-weight:bold;vertical-align:top;">env</td><td style="vertical-align:top;">:</td><td><div><table><tr><td style="font-weight:bold;vertical-align:top;">HTTP_ACCEPT</td><td style="vertical-align:top;">:</td><td><div>text/html,application/xhtml+xml,application/xml;q=0.9,image/webp,*/*;q=0.8</div></td></tr><tr><td style="font-weight:bold;vertical-align:top;">HTTP_ACCEPT_ENCODING</td><td style="vertical-align:top;">:</td><td><div>gzip, deflate, sdch, br</div></td></tr><tr><td style="font-weight:bold;vertical-align:top;">HTTP_ACCEPT_LANGUAGE</td><td style="vertical-align:top;">:</td><td><div>en-US,en;q=0.8</div></td></tr><tr><td style="font-weight:bold;vertical-align:top;">HTTP_CACHE_CONTROL</td><td style="vertical-align:top;">:</td><td><div>no-cache</div></td></tr><tr><td style="font-weight:bold;vertical-align:top;">HTTP_CONNECTION</td><td style="vertical-align:top;">:</td><td><div>keep-alive</div></td></tr><tr><td style="font-weight:bold;vertical-align:top;">HTTP_COOKIE</td><td style="vertical-align:top;">:</td><td><div>session_id_admin=127.0.0.1-ad0ae3f9-0307-4d77-8dff-02b7f4d47f4d; session_id_rainforest_rhythm=127.0.0.1-97b81f58-ac39-4ff7-9ffd-5e44f6ff9431</div></td></tr><tr><td style="font-weight:bold;vertical-align:top;">HTTP_HOST</td><td style="vertical-align:top;">:</td><td><div>127.0.0.1:8000</div></td></tr><tr><td style="font-weight:bold;vertical-align:top;">HTTP_PRAGMA</td><td style="vertical-align:top;">:</td><td><div>no-cache</div></td></tr><tr><td style="font-weight:bold;vertical-align:top;">HTTP_UPGRADE_INSECURE_REQUESTS</td><td style="vertical-align:top;">:</td><td><div>1</div></td></tr><tr><td style="font-weight:bold;vertical-align:top;">HTTP_USER_AGENT</td><td style="vertical-align:top;">:</td><td><div>Mozilla/5.0 (Macintosh; Intel Mac OS X 10_10_5) AppleWebKit/537.36 (KHTML, like Gecko) Chrome/57.0.2987.133 Safari/537.36</div></td></tr><tr><td style="font-weight:bold;vertical-align:top;">PATH_INFO</td><td style="vertical-align:top;">:</td><td><div>/Rainforest_Rhythm/player</div></td></tr><tr><td style="font-weight:bold;vertical-align:top;">QUERY_STRING</td><td style="vertical-align:top;">:</td><td><div>audio_id=1</div></td></tr><tr><td style="font-weight:bold;vertical-align:top;">REMOTE_ADDR</td><td style="vertical-align:top;">:</td><td><div>127.0.0.1</div></td></tr><tr><td style="font-weight:bold;vertical-align:top;">REMOTE_PORT</td><td style="vertical-align:top;">:</td><td><div>61066</div></td></tr><tr><td style="font-weight:bold;vertical-align:top;">REQUEST_METHOD</td><td style="vertical-align:top;">:</td><td><div>GET</div></td></tr><tr><td style="font-weight:bold;vertical-align:top;">SCRIPT_NAME</td><td style="vertical-align:top;">:</td><td><div></div></td></tr><tr><td style="font-weight:bold;vertical-align:top;">SERVER_NAME</td><td style="vertical-align:top;">:</td><td><div>lb-dormelap.sp.ic.ac.uk</div></td></tr><tr><td style="font-weight:bold;vertical-align:top;">SERVER_PORT</td><td style="vertical-align:top;">:</td><td><div>8000</div></td></tr><tr><td style="font-weight:bold;vertical-align:top;">SERVER_PROTOCOL</td><td style="vertical-align:top;">:</td><td><div>HTTP/1.1</div></td></tr><tr><td style="font-weight:bold;vertical-align:top;">SERVER_SOFTWARE</td><td style="vertical-align:top;">:</td><td><div>Rocket 1.2.6</div></td></tr><tr><td style="font-weight:bold;vertical-align:top;">app_folders</td><td style="vertical-align:top;">:</td><td><div>set([&#x27;/Users/dorme/Research/SAFE/Web2Py/web2py/applications/admin/&#x27;, &#x27;/Users/dorme/Research/SAFE/Web2Py/web2py/applications/Rainforest_Rhythm/&#x27;, &#x27;/Users/dorme/Research/SAFE/Web2Py/web2py/applications/SAFE_web/&#x27;])</div></td></tr><tr><td style="font-weight:bold;vertical-align:top;">applications_parent</td><td style="vertical-align:top;">:</td><td><div>/Users/dorme/Research/SAFE/Web2Py/web2py</div></td></tr><tr><td style="font-weight:bold;vertical-align:top;">cmd_args</td><td style="vertical-align:top;">:</td><td><div><table></table></div></td></tr><tr><td style="font-weight:bold;vertical-align:top;">cmd_options</td><td style="vertical-align:top;">:</td><td><div>&lt;Values at 0x104d00200: {&#x27;verbose&#x27;: False, &#x27;ip&#x27;: &#x27;127.0.0.1&#x27;, &#x27;debuglevel&#x27;: 30, &#x27;with_scheduler&#x27;: False, &#x27;ips&#x27;: [&#x27;129.31.3.3&#x27;], &#x27;shutdown_timeout&#x27;: 5, &#x27;taskbar&#x27;: False, &#x27;with_coverage&#x27;: False, &#x27;scheduler_groups&#x27;: None, &#x27;port&#x27;: 8000, &#x27;maxthreads&#x27;: None, &#x27;softcron&#x27;: False, &#x27;server_name&#x27;: &#x27;lb-dormelap.sp.ic.ac.uk&#x27;, &#x27;bpython&#x27;: False, &#x27;nogui&#x27;: False, &#x27;pid_filename&#x27;: &#x27;httpserver.pid&#x27;, &#x27;print_errors&#x27;: False, &#x27;extcron&#x27;: False, &#x27;runcron&#x27;: False, &#x27;run_system_tests&#x27;: False, &#x27;test&#x27;: None, &#x27;folder&#x27;: &#x27;/Users/dorme/Research/SAFE/Web2Py/web2py&#x27;, &#x27;config&#x27;: &#x27;&#x27;, &#x27;minthreads&#x27;: None, &#x27;shell&#x27;: None, &#x27;run&#x27;: &#x27;&#x27;, &#x27;log_filename&#x27;: &#x27;httpserver.log&#x27;, &#x27;profiler_dir&#x27;: None, &#x27;args&#x27;: [&#x27;&#x27;], &#x27;socket_timeout&#x27;: 5, &#x27;ssl_ca_certificate&#x27;: None, &#x27;scheduler&#x27;: None, &#x27;interfaces&#x27;: None, &#x27;ssl_private_key&#x27;: &#x27;&#x27;, &#x27;gae&#x27;: None, &#x27;password&#x27;: &#x27;&lt;ask&gt;&#x27;, &#x27;request_queue_size&#x27;: 5, &#x27;ssl_certificate&#x27;: &#x27;&#x27;, &#x27;cronjob&#x27;: False, &#x27;numthreads&#x27;: None, &#x27;quiet&#x27;: False, &#x27;import_models&#x27;: False, &#x27;timeout&#x27;: 10, &#x27;plain&#x27;: False, &#x27;nobanner&#x27;: False}&gt;</div></td></tr><tr><td style="font-weight:bold;vertical-align:top;">db_sessions</td><td style="vertical-align:top;">:</td><td><div>set([])</div></td></tr><tr><td style="font-weight:bold;vertical-align:top;">debugging</td><td style="vertical-align:top;">:</td><td><div>False</div></td></tr><tr><td style="font-weight:bold;vertical-align:top;">gluon_parent</td><td style="vertical-align:top;">:</td><td><div>/Users/dorme/Research/SAFE/Web2Py/web2py</div></td></tr><tr><td style="font-weight:bold;vertical-align:top;">http_accept</td><td style="vertical-align:top;">:</td><td><div>text/html,application/xhtml+xml,application/xml;q=0.9,image/webp,*/*;q=0.8</div></td></tr><tr><td style="font-weight:bold;vertical-align:top;">http_accept_encoding</td><td style="vertical-align:top;">:</td><td><div>gzip, deflate, sdch, br</div></td></tr><tr><td style="font-weight:bold;vertical-align:top;">http_accept_language</td><td style="vertical-align:top;">:</td><td><div>en-US,en;q=0.8</div></td></tr><tr><td style="font-weight:bold;vertical-align:top;">http_cache_control</td><td style="vertical-align:top;">:</td><td><div>no-cache</div></td></tr><tr><td style="font-weight:bold;vertical-align:top;">http_connection</td><td style="vertical-align:top;">:</td><td><div>keep-alive</div></td></tr><tr><td style="font-weight:bold;vertical-align:top;">http_cookie</td><td style="vertical-align:top;">:</td><td><div>session_id_admin=127.0.0.1-ad0ae3f9-0307-4d77-8dff-02b7f4d47f4d; session_id_rainforest_rhythm=127.0.0.1-97b81f58-ac39-4ff7-9ffd-5e44f6ff9431</div></td></tr><tr><td style="font-weight:bold;vertical-align:top;">http_host</td><td style="vertical-align:top;">:</td><td><div>127.0.0.1:8000</div></td></tr><tr><td style="font-weight:bold;vertical-align:top;">http_pragma</td><td style="vertical-align:top;">:</td><td><div>no-cache</div></td></tr><tr><td style="font-weight:bold;vertical-align:top;">http_upgrade_insecure_requests</td><td style="vertical-align:top;">:</td><td><div>1</div></td></tr><tr><td style="font-weight:bold;vertical-align:top;">http_user_agent</td><td style="vertical-align:top;">:</td><td><div>Mozilla/5.0 (Macintosh; Intel Mac OS X 10_10_5) AppleWebKit/537.36 (KHTML, like Gecko) Chrome/57.0.2987.133 Safari/537.36</div></td></tr><tr><td style="font-weight:bold;vertical-align:top;">is_jython</td><td style="vertical-align:top;">:</td><td><div>False</div></td></tr><tr><td style="font-weight:bold;vertical-align:top;">is_pypy</td><td style="vertical-align:top;">:</td><td><div>False</div></td></tr><tr><td style="font-weight:bold;vertical-align:top;">is_source</td><td style="vertical-align:top;">:</td><td><div>True</div></td></tr><tr><td style="font-weight:bold;vertical-align:top;">local_hosts</td><td style="vertical-align:top;">:</td><td><div><table><tr><td><div>129.31.3.3</div></td></tr><tr><td><div>::1</div></td></tr><tr><td><div>::ffff:127.0.0.1</div></td></tr><tr><td><div>127.0.0.1</div></td></tr><tr><td><div>lb-dormelap.sp.ic.ac.uk</div></td></tr></table></div></td></tr><tr><td style="font-weight:bold;vertical-align:top;">path_info</td><td style="vertical-align:top;">:</td><td><div>/Rainforest_Rhythm/player</div></td></tr><tr><td style="font-weight:bold;vertical-align:top;">query_string</td><td style="vertical-align:top;">:</td><td><div>audio_id=1</div></td></tr><tr><td style="font-weight:bold;vertical-align:top;">remote_addr</td><td style="vertical-align:top;">:</td><td><div>127.0.0.1</div></td></tr><tr><td style="font-weight:bold;vertical-align:top;">remote_port</td><td style="vertical-align:top;">:</td><td><div>61066</div></td></tr><tr><td style="font-weight:bold;vertical-align:top;">request_method</td><td style="vertical-align:top;">:</td><td><div>GET</div></td></tr><tr><td style="font-weight:bold;vertical-align:top;">request_uri</td><td style="vertical-align:top;">:</td><td><div>/Rainforest_Rhythm/default/player?audio_id=1</div></td></tr><tr><td style="font-weight:bold;vertical-align:top;">script_name</td><td style="vertical-align:top;">:</td><td><div></div></td></tr><tr><td style="font-weight:bold;vertical-align:top;">server_name</td><td style="vertical-align:top;">:</td><td><div>lb-dormelap.sp.ic.ac.uk</div></td></tr><tr><td style="font-weight:bold;vertical-align:top;">server_port</td><td style="vertical-align:top;">:</td><td><div>8000</div></td></tr><tr><td style="font-weight:bold;vertical-align:top;">server_protocol</td><td style="vertical-align:top;">:</td><td><div>HTTP/1.1</div></td></tr><tr><td style="font-weight:bold;vertical-align:top;">server_software</td><td style="vertical-align:top;">:</td><td><div>Rocket 1.2.6</div></td></tr><tr><td style="font-weight:bold;vertical-align:top;">web2py_original_uri</td><td style="vertical-align:top;">:</td><td><div>/Rainforest_Rhythm/player?audio_id=1</div></td></tr><tr><td style="font-weight:bold;vertical-align:top;">web2py_path</td><td style="vertical-align:top;">:</td><td><div>/Users/dorme/Research/SAFE/Web2Py/web2py</div></td></tr><tr><td style="font-weight:bold;vertical-align:top;">web2py_version</td><td style="vertical-align:top;">:</td><td><div>2.13.2-stable+timestamp.2015.12.18.11.00.46</div></td></tr><tr><td style="font-weight:bold;vertical-align:top;">wsgi.errors</td><td style="vertical-align:top;">:</td><td><div>&lt;open file &#x27;&lt;stderr&gt;&#x27;, mode &#x27;w&#x27; at 0x1002971e0&gt;</div></td></tr><tr><td style="font-weight:bold;vertical-align:top;">wsgi.file_wrapper</td><td style="vertical-align:top;">:</td><td><div>&lt;class wsgiref.util.FileWrapper at 0x10432c258&gt;</div></td></tr><tr><td style="font-weight:bold;vertical-align:top;">wsgi.input</td><td style="vertical-align:top;">:</td><td><div>&lt;socket._fileobject object at 0x112bff650&gt;</div></td></tr><tr><td style="font-weight:bold;vertical-align:top;">wsgi.multiprocess</td><td style="vertical-align:top;">:</td><td><div>False</div></td></tr><tr><td style="font-weight:bold;vertical-align:top;">wsgi.multithread</td><td style="vertical-align:top;">:</td><td><div>True</div></td></tr><tr><td style="font-weight:bold;vertical-align:top;">wsgi.run_once</td><td style="vertical-align:top;">:</td><td><div>False</div></td></tr><tr><td style="font-weight:bold;vertical-align:top;">wsgi.url_scheme</td><td style="vertical-align:top;">:</td><td><div>http</div></td></tr><tr><td style="font-weight:bold;vertical-align:top;">wsgi.version</td><td style="vertical-align:top;">:</td><td><div><table><tr><td><div>1</div></td></tr><tr><td><div>0</div></td></tr></table></div></td></tr><tr><td style="font-weight:bold;vertical-align:top;">wsgi_errors</td><td style="vertical-align:top;">:</td><td><div>&lt;open file &#x27;&lt;stderr&gt;&#x27;, mode &#x27;w&#x27; at 0x1002971e0&gt;</div></td></tr><tr><td style="font-weight:bold;vertical-align:top;">wsgi_file_wrapper</td><td style="vertical-align:top;">:</td><td><div>&lt;class wsgiref.util.FileWrapper at 0x10432c258&gt;</div></td></tr><tr><td style="font-weight:bold;vertical-align:top;">wsgi_input</td><td style="vertical-align:top;">:</td><td><div>&lt;socket._fileobject object at 0x112bff650&gt;</div></td></tr><tr><td style="font-weight:bold;vertical-align:top;">wsgi_multiprocess</td><td style="vertical-align:top;">:</td><td><div>False</div></td></tr><tr><td style="font-weight:bold;vertical-align:top;">wsgi_multithread</td><td style="vertical-align:top;">:</td><td><div>True</div></td></tr><tr><td style="font-weight:bold;vertical-align:top;">wsgi_run_once</td><td style="vertical-align:top;">:</td><td><div>False</div></td></tr><tr><td style="font-weight:bold;vertical-align:top;">wsgi_url_scheme</td><td style="vertical-align:top;">:</td><td><div>http</div></td></tr><tr><td style="font-weight:bold;vertical-align:top;">wsgi_version</td><td style="vertical-align:top;">:</td><td><div><table><tr><td><div>1</div></td></tr><tr><td><div>0</div></td></tr></table></div></td></tr></table></div></td></tr><tr><td style="font-weight:bold;vertical-align:top;">extension</td><td style="vertical-align:top;">:</td><td><div>html</div></td></tr><tr><td style="font-weight:bold;vertical-align:top;">folder</td><td style="vertical-align:top;">:</td><td><div>/Users/dorme/Research/SAFE/Web2Py/web2py/applications/Rainforest_Rhythm/</div></td></tr><tr><td style="font-weight:bold;vertical-align:top;">function</td><td style="vertical-align:top;">:</td><td><div>player</div></td></tr><tr><td style="font-weight:bold;vertical-align:top;">global_settings</td><td style="vertical-align:top;">:</td><td><div><table><tr><td style="font-weight:bold;vertical-align:top;">app_folders</td><td style="vertical-align:top;">:</td><td><div>set([&#x27;/Users/dorme/Research/SAFE/Web2Py/web2py/applications/admin/&#x27;, &#x27;/Users/dorme/Research/SAFE/Web2Py/web2py/applications/Rainforest_Rhythm/&#x27;, &#x27;/Users/dorme/Research/SAFE/Web2Py/web2py/applications/SAFE_web/&#x27;])</div></td></tr><tr><td style="font-weight:bold;vertical-align:top;">applications_parent</td><td style="vertical-align:top;">:</td><td><div>/Users/dorme/Research/SAFE/Web2Py/web2py</div></td></tr><tr><td style="font-weight:bold;vertical-align:top;">cmd_args</td><td style="vertical-align:top;">:</td><td><div><table></table></div></td></tr><tr><td style="font-weight:bold;vertical-align:top;">cmd_options</td><td style="vertical-align:top;">:</td><td><div>&lt;Values at 0x104d00200: {&#x27;verbose&#x27;: False, &#x27;ip&#x27;: &#x27;127.0.0.1&#x27;, &#x27;debuglevel&#x27;: 30, &#x27;with_scheduler&#x27;: False, &#x27;ips&#x27;: [&#x27;129.31.3.3&#x27;], &#x27;shutdown_timeout&#x27;: 5, &#x27;taskbar&#x27;: False, &#x27;with_coverage&#x27;: False, &#x27;scheduler_groups&#x27;: None, &#x27;port&#x27;: 8000, &#x27;maxthreads&#x27;: None, &#x27;softcron&#x27;: False, &#x27;server_name&#x27;: &#x27;lb-dormelap.sp.ic.ac.uk&#x27;, &#x27;bpython&#x27;: False, &#x27;nogui&#x27;: False, &#x27;pid_filename&#x27;: &#x27;httpserver.pid&#x27;, &#x27;print_errors&#x27;: False, &#x27;extcron&#x27;: False, &#x27;runcron&#x27;: False, &#x27;run_system_tests&#x27;: False, &#x27;test&#x27;: None, &#x27;folder&#x27;: &#x27;/Users/dorme/Research/SAFE/Web2Py/web2py&#x27;, &#x27;config&#x27;: &#x27;&#x27;, &#x27;minthreads&#x27;: None, &#x27;shell&#x27;: None, &#x27;run&#x27;: &#x27;&#x27;, &#x27;log_filename&#x27;: &#x27;httpserver.log&#x27;, &#x27;profiler_dir&#x27;: None, &#x27;args&#x27;: [&#x27;&#x27;], &#x27;socket_timeout&#x27;: 5, &#x27;ssl_ca_certificate&#x27;: None, &#x27;scheduler&#x27;: None, &#x27;interfaces&#x27;: None, &#x27;ssl_private_key&#x27;: &#x27;&#x27;, &#x27;gae&#x27;: None, &#x27;password&#x27;: &#x27;&lt;ask&gt;&#x27;, &#x27;request_queue_size&#x27;: 5, &#x27;ssl_certificate&#x27;: &#x27;&#x27;, &#x27;cronjob&#x27;: False, &#x27;numthreads&#x27;: None, &#x27;quiet&#x27;: False, &#x27;import_models&#x27;: False, &#x27;timeout&#x27;: 10, &#x27;plain&#x27;: False, &#x27;nobanner&#x27;: False}&gt;</div></td></tr><tr><td style="font-weight:bold;vertical-align:top;">db_sessions</td><td style="vertical-align:top;">:</td><td><div>set([])</div></td></tr><tr><td style="font-weight:bold;vertical-align:top;">debugging</td><td style="vertical-align:top;">:</td><td><div>False</div></td></tr><tr><td style="font-weight:bold;vertical-align:top;">gluon_parent</td><td style="vertical-align:top;">:</td><td><div>/Users/dorme/Research/SAFE/Web2Py/web2py</div></td></tr><tr><td style="font-weight:bold;vertical-align:top;">is_jython</td><td style="vertical-align:top;">:</td><td><div>False</div></td></tr><tr><td style="font-weight:bold;vertical-align:top;">is_pypy</td><td style="vertical-align:top;">:</td><td><div>False</div></td></tr><tr><td style="font-weight:bold;vertical-align:top;">is_source</td><td style="vertical-align:top;">:</td><td><div>True</div></td></tr><tr><td style="font-weight:bold;vertical-align:top;">local_hosts</td><td style="vertical-align:top;">:</td><td><div><table><tr><td><div>129.31.3.3</div></td></tr><tr><td><div>::1</div></td></tr><tr><td><div>::ffff:127.0.0.1</div></td></tr><tr><td><div>127.0.0.1</div></td></tr><tr><td><div>lb-dormelap.sp.ic.ac.uk</div></td></tr></table></div></td></tr><tr><td style="font-weight:bold;vertical-align:top;">web2py_version</td><td style="vertical-align:top;">:</td><td><div>2.13.2-stable+timestamp.2015.12.18.11.00.46</div></td></tr></table></div></td></tr><tr><td style="font-weight:bold;vertical-align:top;">is_https</td><td style="vertical-align:top;">:</td><td><div>False</div></td></tr><tr><td style="font-weight:bold;vertical-align:top;">is_local</td><td style="vertical-align:top;">:</td><td><div>True</div></td></tr><tr><td style="font-weight:bold;vertical-align:top;">is_restful</td><td style="vertical-align:top;">:</td><td><div>False</div></td></tr><tr><td style="font-weight:bold;vertical-align:top;">is_scheduler</td><td style="vertical-align:top;">:</td><td><div>False</div></td></tr><tr><td style="font-weight:bold;vertical-align:top;">is_shell</td><td style="vertical-align:top;">:</td><td><div>False</div></td></tr><tr><td style="font-weight:bold;vertical-align:top;">now</td><td style="vertical-align:top;">:</td><td><div>datetime.datetime(2017, 4, 3, 12, 13, 58, 316488)</div></td></tr><tr><td style="font-weight:bold;vertical-align:top;">url</td><td style="vertical-align:top;">:</td><td><div>/Rainforest_Rhythm/player</div></td></tr><tr><td style="font-weight:bold;vertical-align:top;">utcnow</td><td style="vertical-align:top;">:</td><td><div>datetime.datetime(2017, 4, 3, 11, 13, 58, 316497)</div></td></tr><tr><td style="font-weight:bold;vertical-align:top;">wsgi</td><td style="vertical-align:top;">:</td><td><div>&lt;gluon.main.LazyWSGI object at 0x112ccc110&gt;</div></td></tr></table></div>'
tRp58
sS'frames'
p59
(lp60
(dp61
S'file'
p62
S'/Users/dorme/Research/SAFE/Web2Py/web2py/gluon/restricted.py'
p63
sS'dump'
p64
(dp65
S'environment'
p66
S"{'A': <class 'gluon.html.A'>, 'ANY_OF': <class 'gluon.validators.ANY_OF'>, 'ASSIGNJS': <function ASSIGNJS>, 'AppConfig': <function AppConfig>, 'AudioSegment': <class 'pydub.audio_segment.AudioSegment'>, 'Auth': <class 'gluon.tools.Auth'>, 'B': <class 'gluon.html.B'>, 'BEAUTIFY': <class 'gluon.html.BEAUTIFY'>, 'BODY': <class 'gluon.html.BODY'>, 'BR': <class 'gluon.html.BR'>, ...}"
p67
sS'ccode'
p68
S'<code object <module> at 0x10f01d6b0, file "/Use...forest_Rhythm/views/default/player.html", line 1>'
p69
ssS'lnum'
p70
I227
sS'lines'
p71
(dp72
I224
S'            ccode = code'
p73
sI225
S'        else:'
p74
sI226
S'            ccode = compile2(code, layer)'
p75
sI227
S'        exec ccode in environment'
p76
sI228
S'    except HTTP:'
p77
sI229
S'        raise'
p78
sI230
S'    except RestrictedError:'
p79
sI231
S'        # do not encapsulate (obfuscate) the original RestrictedError'
p80
sI222
S'    try:'
p81
sI223
S'        if isinstance(code, types.CodeType):'
p82
ssS'call'
p83
S'(code=r"response.write(\'<!DOCTYPE html>\\n<!--[if (gt IE ...n  </body>\\n  \\n  \\n  \\n</html>\\n\', escape=False)", environment={\'A\': <class \'gluon.html.A\'>, \'ANY_OF\': <class \'gluon.validators.ANY_OF\'>, \'ASSIGNJS\': <function ASSIGNJS>, \'AppConfig\': <function AppConfig>, \'AudioSegment\': <class \'pydub.audio_segment.AudioSegment\'>, \'Auth\': <class \'gluon.tools.Auth\'>, \'B\': <class \'gluon.html.B\'>, \'BEAUTIFY\': <class \'gluon.html.BEAUTIFY\'>, \'BODY\': <class \'gluon.html.BODY\'>, \'BR\': <class \'gluon.html.BR\'>, ...}, layer=\'/Users/dorme/Research/SAFE/Web2Py/web2py/applications/Rainforest_Rhythm/views/default/player.html\')'
p84
sS'func'
p85
S'restricted'
p86
sa(dp87
g62
S'/Users/dorme/Research/SAFE/Web2Py/web2py/applications/Rainforest_Rhythm/views/default/player.html'
p88
sg64
(dp89
S'wavesurfer'
p90
S'undefined'
p91
ssg70
I91
sg71
(dp92
I96
S'response.write(\'", peaks.responseJSON);\\n\\t\\twavesurfer.load("\', escape=False)'
p93
sI97
S"response.write(URL('static', record.static_filepath))"
p94
sI98
S'response.write(\'");\\n\\t\\t\\n\\t\\t// Store the default zoom level in the wavesurfer\\n\\t\\twavesurfer.zoomLevel = 25;\\n\\t\\t\\n\\t\\t// When the load completes, do the following actions\\n\\t\\twavesurfer.on(\\\'ready\\\', function () {\\n\\t\\t\\t\\t\\n\\t\\t\\t\\t// set the default zoom level \\n\\t\\t\\t\\twavesurfer.zoom(wavesurfer.zoomLevel);\\n\\t\\t\\t\\t\\n\\t\\t\\t\\t// Enable creating regions by dragging\\n\\t\\t\\t\\twavesurfer.enableDragSelection({\\n\\t\\t\\t\\t\\tdrag: true,\\n\\t\\t\\t\\t\\tresize: true,\\n\\t\\t\\t\\t\\tcolor: "rgba(255,0,0,0.2)"\\n\\t\\t\\t\\t});\\n\\t\\t\\t\\t\\n\\t\\t\\t\\t//Initialise the timeline\\n\\t\\t\\t\\tvar timeline = Object.create(WaveSurfer.Timeline);\\n\\t\\t\\t\\t\\n\\t\\t\\t\\ttimeline.init({\\n\\t\\t\\t\\t\\twavesurfer: wavesurfer,\\n\\t\\t\\t\\t\\tcontainer: \\\'#waveform-timeline\\\'\\n\\t\\t\\t\\t});\\n\\t\\t\\t\\t\\n\\t\\t\\t\\t//Example code to add individual locked region\\n\\t\\t\\t\\t// wavesurfer.addRegion({\\n\\t\\t\\t\\t//\\t start: 8,\\n\\t\\t\\t\\t//\\t end: 14,\\n\\t\\t\\t\\t//\\t color: \\\'hsla(200, 100%, 30%, 0.1)\\\',\\n\\t\\t\\t\\t//\\t drag:false,\\n\\t\\t\\t\\t//\\t resize: false\\n\\t\\t\\t\\t// });\\n\\t\\t\\t\\t\\n\\t\\t\\t\\t// Load the existing regions from the DB\\n\\t\\t\\t\\tloadLockedRegions(regions);\\n\\t\\t\\t\\t\\n\\t\\t});\\n\\t\\t\\n\\t\\t// Code to switch the label on the play button \\n\\t\\t// This will fire with a click on the button or\\n\\t\\t// if the space button is used to pause and play.\\n\\t\\twavesurfer.on(\\\'pause\\\', function () {\\n\\t\\t\\t\\t$(\\\'#play\\\')[0].innerHTML = "<i class=\\\'glyphicon glyphicon-play\\\'></i> Play";\\n\\t\\t});\\n\\t\\t\\n\\t\\twavesurfer.on(\\\'play\\\', function () {\\n\\t\\t\\t\\t$(\\\'#play\\\')[0].innerHTML = "<i class=\\\'glyphicon glyphicon-pause\\\'></i> Pause";\\n\\t\\t});\\n\\t\\t\\n\\t\\t// Control the zoom level\\n\\n\\t\\t$(\\\'#zoomout\\\').click(function(){\\n\\t\\t\\twavesurfer.zoomLevel = wavesurfer.zoomLevel - 5\\n\\t\\t\\twavesurfer.zoom(wavesurfer.zoomLevel);\\n\\t\\t});\\n\\n\\t\\t$(\\\'#zoomin\\\').click(function(){\\n\\t\\t\\twavesurfer.zoomLevel = wavesurfer.zoomLevel + 5\\n\\t\\t\\twavesurfer.zoom(wavesurfer.zoomLevel);\\n\\t\\t});\\n\\n\\t\\t\\n\\t\\t// Code to handle creating a new call region and\\n\\t\\t// making sure only one new region is highlighted\\n\\t\\t// at any one time. Creating a new region currently\\n\\t\\t// submits to the server DB and reloads the whole page \\n\\t\\t// (which has the side effect of clearing any new region)\\n\\t\\t\\n\\t\\tvar createdRegion = null;\\n\\t\\t\\n\\t\\twavesurfer.on(\\\'region-created\\\', function(newRegion) {\\n\\t\\t\\t\\t\\tif (newRegion.attributes[\\\'type\\\'] == \\\'fixed\\\') {\\n\\t\\t\\t\\t\\t\\t// do nothing when creating existing regions\\n\\t\\t\\t\\t\\t} else if (createdRegion) {\\n\\t\\t\\t\\t\\t\\tcreatedRegion.remove()\\n\\t\\t\\t\\t\\t\\tcreatedRegion = newRegion\\n\\t\\t\\t\\t\\t\\t$(\\\'#newcall\\\').prop(\\\'disabled\\\', false);\\n\\t\\t\\t\\t\\t} else {\\n\\t\\t\\t\\t\\t\\tcreatedRegion = newRegion\\n\\t\\t\\t\\t\\t\\t$(\\\'#newcall\\\').prop(\\\'disabled\\\', false);\\n\\t\\t\\t\\t\\t};\\n\\t\\t});\\n\\t\\t\\n\\t\\t// Action to append data from a new regions when the new region\\n\\t\\t// form is submitted and to make the create button inactive\\n\\t\\t$(\\\'#newcall\\\').click(function(){\\n\\t\\t\\t\\t$(\\\'#callform\\\').append(\\\'<input type="hidden" name="start" value="\\\'+ createdRegion.start +\\\'" id="id">\\\')\\n\\t\\t\\t\\t$(\\\'#callform\\\').append(\\\'<input type="hidden" name="end" value="\\\'+ createdRegion.end +\\\'" id="id">\\\')\\n\\t\\t});\\n\\t\\t\\n\\t\\t// Code to control the display of call region information \\n\\t\\t// when played or selected using the mouse\\n\\t\\t\\n\\t\\t// Actions to show region information while playback passes \\n\\t\\t// through a region\\n\\t\\twavesurfer.on(\\\'region-in\\\', function(region) {\\n\\t\\t\\t\\tcall_info = \\\'#call\\\' + region.id\\n\\t\\t\\t\\t$(call_info).collapse(\\\'show\\\', parent=\\\'#calls\\\', toggle=\\\'collapse\\\');\\n\\t\\t});\\n\\t\\t\\n\\t\\twavesurfer.on(\\\'region-out\\\', function(region) {\\n\\t\\t\\t\\tcall_info = \\\'#call\\\' + region.id\\n\\t\\t\\t\\t$(call_info).collapse(\\\'hide\\\', parent=\\\'#calls\\\', toggle=\\\'collapse\\\');\\n\\t\\t});\\n\\t\\t\\n\\t\\t// Action to show region information when playback is positioned\\n\\t\\t// using a mouse click - needs to handle overlapping layers where the\\n\\t\\t// region-click event only handles some notion of the uppermost layer.\\n\\t\\t// The seek event also fires off when the player is first ready , which is\\n\\t\\t// before the regions are loaded so need to catch that\\n\\t\\t\\n\\t\\twavesurfer.on(\\\'seek\\\', function(position) {\\n\\t\\t\\t\\tvar seekTime = position * wavesurfer.getDuration();\\n\\t\\t\\t\\t\\n\\t\\t\\t\\t// loop the regions\\n\\t\\t\\t\\tif (wavesurfer.regions){\\n\\t\\t\\t\\t\\t\\tfor (r in wavesurfer.regions.list){\\n\\t\\t\\t\\t\\t\\t\\t\\tstart = wavesurfer.regions.list[r][\\\'start\\\'];\\n\\t\\t\\t\\t\\t\\t\\t\\tend = wavesurfer.regions.list[r][\\\'end\\\'];\\n\\t\\t\\t\\t\\t\\t\\t\\tcall_info = \\\'#call\\\' + r;\\n\\t\\t\\t\\t\\t\\t\\t\\tif (start <= seekTime && end >= seekTime) {\\n\\t\\t\\t\\t\\t\\t\\t\\t\\t\\t$(call_info).collapse(\\\'show\\\', parent=\\\'#calls\\\', toggle=\\\'collapse\\\');\\n\\t\\t\\t\\t\\t\\t\\t\\t} else {\\n\\t\\t\\t\\t\\t\\t\\t\\t\\t\\t$(call_info).collapse(\\\'hide\\\', parent=\\\'#calls\\\', toggle=\\\'collapse\\\');\\n\\t\\t\\t\\t\\t\\t\\t\\t}\\n\\t\\t\\t\\t\\t\\t}\\n\\t\\t\\t\\t}\\n\\t\\t});\\n\\n\\t\\t// Action to play calls - triggers on any play_call_ button being \\n\\t\\t// pressed and then retrieves the region ID and plays it\\n\\t\\t\\n\\t\\t$(\\\'[id^=play_call_]\\\').click(function(){\\n\\t\\t\\t// get the region id from the id of the clicked button\\n\\t\\t\\tvar id = $(this).attr("id").slice(10);\\n\\t\\t\\treg = wavesurfer.regions.list[id]\\n\\t\\t\\t// Use the wavesurfer play not the region play, because\\n\\t\\t\\t// that allows us to hack the end time to avoid hitting\\n\\t\\t\\t// the end of the region and triggering the region-out\\n\\t\\t\\t// event (which hides the call info)\\n\\t\\t\\t// TODO - colour change to highlight\\n\\t\\t\\t//reg.update({color: \\\'hsla(200, 100%, 30%, 0.1)\\\'});\\n\\t\\t\\twavesurfer.play(reg[\\\'start\\\'], reg[\\\'end\\\'] - 0.01)\\n\\t\\t\\t//reg.update({color: \\\'rgba(0, 0, 0, 0.1)\\\'});\\n\\t\\t});\\n\\t\\t\\n\\t\\t// Functions to highlight individual calls\\n\\t\\tfunction highlight_call(x) {\\n\\t\\t\\tvar id = $(x).attr("id").slice(10);\\n\\t\\t\\treg = wavesurfer.regions.list[id]\\n\\t\\t\\treg.update({color: \\\'rgba(100, 255, 100, 0.2)\\\'});\\n\\t\\t}\\n\\n\\t\\tfunction dehighlight_call(x) {\\n\\t\\t\\tvar id = $(x).attr("id").slice(10);\\n\\t\\t\\treg = wavesurfer.regions.list[id]\\n\\t\\t\\treg.update({color: \\\'rgba(0, 0, 0, 0.1)\\\'});\\n\\t\\t}\\n\\t\\t\\n\\t\\t// Create the rainbow to be used to colour vote bars\\n\\t\\tvar rainbow = new Rainbow();\\n\\t\\trainbow.setSpectrum(\\\'#d7191c\\\',\\\'#fdae61\\\',\\\'#abd9e9\\\',\\\'#2c7bb6\\\');\\n\\t\\n\\t\\twindow.onload = function(){\\n\\t\\t\\n\\t\\t\\t// Coloring the vote bars using rainbowvis\\n\\t\\t\\tvar bars = document.getElementsByClassName(\\\'progress-bar\\\');\\n\\t\\t\\tfor(var i = 0; i < bars.length; i++)\\n\\t\\t\\t{\\n\\t\\t\\t\\t//convert the width to a float\\n\\t\\t\\t\\tvar width = parseFloat(bars[i].style.width)\\n\\t\\t\\t\\tbars[i].style.backgroundColor = \\\'#\\\' + rainbow.colourAt(width)\\n\\t\\t\\t}\\n\\t\\t\\n\\t\\t}\\n\\t\\t\\n\\t\\t</script>\\n\\t\\t\', escape=False)'
p95
sI99
S"response.write('\\n\\t\\n  </body>\\n  \\n  \\n  \\n</html>\\n', escape=False)"
p96
sI82
S"response.write('\\n    ', escape=False)"
p97
sI83
S'response.write(\'\\n\\n    <!-- The javascript -->\\n    <script src="\', escape=False)'
p98
sI84
S"response.write(URL('static','js/bootstrap.min.js'))"
p99
sI85
S'response.write(\'"></script>\\n    <script src="\', escape=False)'
p100
sI86
S"response.write(URL('static','js/web2py-bootstrap3.js'))"
p101
sI87
S'response.write(\'"></script>\\n    <script src="\', escape=False)'
p102
sI88
S"response.write(URL('static','js/rainbowvis.js'))"
p103
sI89
S'response.write(\'"></script>\\n    <script src="http://cdnjs.cloudflare.com/ajax/libs/wavesurfer.js/1.0.52/wavesurfer.min.js"></script>\\n    <script src="https://cdnjs.cloudflare.com/ajax/libs/wavesurfer.js/1.2.3/plugin/wavesurfer.timeline.min.js"></script>\\n    <script src="https://cdnjs.cloudflare.com/ajax/libs/wavesurfer.js/1.2.3/plugin/wavesurfer.regions.min.js"></script>\\n\\t\\n    \', escape=False)'
p104
sI90
S'response.write(\'\\n\\t\\t<script type="text/javascript">\\n\\t\\t\\n\\t\\tvar wavesurfer = WaveSurfer.create({\\n\\t\\t\\t\\tcontainer: \\\'#waveform\\\',\\n\\t\\t\\t\\tscrollParent: true,\\n\\t\\t\\t\\tminimap: true,\\n\\t\\t\\t\\tnormalise: true,\\n\\t\\t\\t\\tminPxPerSec: 10,\\n\\t\\t\\t\\tautocenter: false,\\n\\t\\t\\t\\t// barWidth: 1\\n\\t\\t});\\n\\t\\t\\n\\t\\t/**\\n\\t\\t * Load regions from database\\n\\t\\t */\\n\\t\\t\\n\\t\\tregions = JSON.parse(\\\'\', escape=False)'
p105
sI91
S'response.write(XML(rows))'
p106
sI92
S'response.write(\'\\\');\\n\\t\\t\\n\\t\\t// Function to add existing regions from a JSON object, to be created\\n\\t\\t// from the DB, and make sure their location is locked down.\\n\\t\\tfunction loadLockedRegions(regions) {\\n\\t\\t\\t\\tregions.forEach(function (region) {\\n\\t\\t\\t\\t\\t\\tregion.drag = false;\\n\\t\\t\\t\\t\\t\\tregion.resize = false;\\n\\t\\t\\t\\t\\t\\twavesurfer.addRegion(region);\\n\\t\\t\\t\\t});\\n\\t\\t}\\n\\t\\t\\n\\t\\t// Load the requested sample and its peaks (uses jQuery)\\n\\t\\t//peaks = $.getJSON("\', escape=False)'
p107
sI93
S"response.write(URL('static','/audio/SM300545_0+1_20150909_134611_1.json'))"
p108
sI94
S'response.write(\'");\\n\\t\\t//wavesurfer.load("\', escape=False)'
p109
sI95
S"response.write(URL('static','/audio/SM300545_0+1_20150909_134611_1.mp3'))"
p110
ssg83
S'()'
p111
sg85
S'<module>'
p112
sasS'pyver'
p113
S'Python 2.7.11: /Library/Frameworks/Python.framework/Versions/2.7/Resources/Python.app/Contents/MacOS/Python (prefix: /Library/Frameworks/Python.framework/Versions/2.7)'
p114
sS'session'
p115
g57
(S's\xec\x08\x00\x00<div><table><tr><td style="font-weight:bold;vertical-align:top;">auth</td><td style="vertical-align:top;">:</td><td><div><table><tr><td style="font-weight:bold;vertical-align:top;">expiration</td><td style="vertical-align:top;">:</td><td><div>3600</div></td></tr><tr><td style="font-weight:bold;vertical-align:top;">hmac_key</td><td style="vertical-align:top;">:</td><td><div>a6fe1169-b8c4-4344-8070-f9a85c395837</div></td></tr><tr><td style="font-weight:bold;vertical-align:top;">last_visit</td><td style="vertical-align:top;">:</td><td><div>datetime.datetime(2017, 4, 3, 12, 8, 4, 638821)</div></td></tr><tr><td style="font-weight:bold;vertical-align:top;">remember_me</td><td style="vertical-align:top;">:</td><td><div>False</div></td></tr><tr><td style="font-weight:bold;vertical-align:top;">user</td><td style="vertical-align:top;">:</td><td><div><table><tr><td style="font-weight:bold;vertical-align:top;">email</td><td style="vertical-align:top;">:</td><td><div>d.orme@imperial.ac.uk</div></td></tr><tr><td style="font-weight:bold;vertical-align:top;">first_name</td><td style="vertical-align:top;">:</td><td><div>David</div></td></tr><tr><td style="font-weight:bold;vertical-align:top;">id</td><td style="vertical-align:top;">:</td><td><div>1L</div></td></tr><tr><td style="font-weight:bold;vertical-align:top;">id_skill</td><td style="vertical-align:top;">:</td><td><div>2.0</div></td></tr><tr><td style="font-weight:bold;vertical-align:top;">last_name</td><td style="vertical-align:top;">:</td><td><div>Orme</div></td></tr><tr><td style="font-weight:bold;vertical-align:top;">registration_id</td><td style="vertical-align:top;">:</td><td><div></div></td></tr><tr><td style="font-weight:bold;vertical-align:top;">registration_key</td><td style="vertical-align:top;">:</td><td><div></div></td></tr><tr><td style="font-weight:bold;vertical-align:top;">reset_password_key</td><td style="vertical-align:top;">:</td><td><div></div></td></tr></table></div></td></tr><tr><td style="font-weight:bold;vertical-align:top;">user_groups</td><td style="vertical-align:top;">:</td><td><div><table></table></div></td></tr></table></div></td></tr><tr><td style="font-weight:bold;vertical-align:top;">flash</td><td style="vertical-align:top;">:</td><td><div>None</div></td></tr></table></div>'
tRp116
sS'etype'
p117
S"<type 'exceptions.NameError'>"
p118
sS'date'
p119
S'Mon Apr  3 12:13:58 2017'
p120
sS'response'
p121
g57
(S's\x81!\x00\x00<div><table><tr><td style="font-weight:bold;vertical-align:top;">body</td><td style="vertical-align:top;">:</td><td><div>&lt;cStringIO.StringO object at 0x1138375a8&gt;</div></td></tr><tr><td style="font-weight:bold;vertical-align:top;">cookies</td><td style="vertical-align:top;">:</td><td><div><table><tr><td style="font-weight:bold;vertical-align:top;">session_id_rainforest_rhythm</td><td style="vertical-align:top;">:</td><td><div>127.0.0.1-97b81f58-ac39-4ff7-9ffd-5e44f6ff9431<table><tr><td style="font-weight:bold;vertical-align:top;">comment</td><td style="vertical-align:top;">:</td><td><div></div></td></tr><tr><td style="font-weight:bold;vertical-align:top;">domain</td><td style="vertical-align:top;">:</td><td><div></div></td></tr><tr><td style="font-weight:bold;vertical-align:top;">expires</td><td style="vertical-align:top;">:</td><td><div></div></td></tr><tr><td style="font-weight:bold;vertical-align:top;">httponly</td><td style="vertical-align:top;">:</td><td><div></div></td></tr><tr><td style="font-weight:bold;vertical-align:top;">max-age</td><td style="vertical-align:top;">:</td><td><div></div></td></tr><tr><td style="font-weight:bold;vertical-align:top;">path</td><td style="vertical-align:top;">:</td><td><div>/</div></td></tr><tr><td style="font-weight:bold;vertical-align:top;">secure</td><td style="vertical-align:top;">:</td><td><div></div></td></tr><tr><td style="font-weight:bold;vertical-align:top;">version</td><td style="vertical-align:top;">:</td><td><div></div></td></tr></table></div></td></tr></table></div></td></tr><tr><td style="font-weight:bold;vertical-align:top;">delimiters</td><td style="vertical-align:top;">:</td><td><div><table><tr><td><div>{{</div></td></tr><tr><td><div>}}</div></td></tr></table></div></td></tr><tr><td style="font-weight:bold;vertical-align:top;">files</td><td style="vertical-align:top;">:</td><td><div><table><tr><td><div>/Rainforest_Rhythm/static/js/jquery.js</div></td></tr><tr><td><div>/Rainforest_Rhythm/static/css/calendar.css</div></td></tr><tr><td><div>/Rainforest_Rhythm/static/js/calendar.js</div></td></tr><tr><td><div>/Rainforest_Rhythm/static/js/web2py.js</div></td></tr></table></div></td></tr><tr><td style="font-weight:bold;vertical-align:top;">flash</td><td style="vertical-align:top;">:</td><td><div></div></td></tr><tr><td style="font-weight:bold;vertical-align:top;">form_label_separator</td><td style="vertical-align:top;">:</td><td><div></div></td></tr><tr><td style="font-weight:bold;vertical-align:top;">formstyle</td><td style="vertical-align:top;">:</td><td><div>bootstrap3_inline</div></td></tr><tr><td style="font-weight:bold;vertical-align:top;">generic_patterns</td><td style="vertical-align:top;">:</td><td><div><table><tr><td><div>*</div></td></tr></table></div></td></tr><tr><td style="font-weight:bold;vertical-align:top;">google_analytics_id</td><td style="vertical-align:top;">:</td><td><div>None</div></td></tr><tr><td style="font-weight:bold;vertical-align:top;">headers</td><td style="vertical-align:top;">:</td><td><div><table><tr><td style="font-weight:bold;vertical-align:top;">X-Powered-By</td><td style="vertical-align:top;">:</td><td><div>web2py</div></td></tr></table></div></td></tr><tr><td style="font-weight:bold;vertical-align:top;">logo</td><td style="vertical-align:top;">:</td><td><div><a><img src="/Rainforest_Rhythm/static/images/logo-rainforest-rhythms-dark.png" /></a></div></td></tr><tr><td style="font-weight:bold;vertical-align:top;">menu</td><td style="vertical-align:top;">:</td><td><div><table><tr><td><div><table><tr><td><div>Home</div></td></tr><tr><td><div>False</div></td></tr><tr><td><div>/Rainforest_Rhythm</div></td></tr><tr><td><div><table></table></div></td></tr></table></div></td></tr><tr><td><div><table><tr><td><div>Recordings</div></td></tr><tr><td><div>False</div></td></tr><tr><td><div>/Rainforest_Rhythm/recordings</div></td></tr><tr><td><div><table></table></div></td></tr></table></div></td></tr><tr><td><div><table><tr><td><div>Calls</div></td></tr><tr><td><div>False</div></td></tr><tr><td><div>/Rainforest_Rhythm/calls</div></td></tr><tr><td><div><table></table></div></td></tr></table></div></td></tr><tr><td><div><table><tr><td><div>Taxa</div></td></tr><tr><td><div>False</div></td></tr><tr><td><div>/Rainforest_Rhythm/taxa</div></td></tr><tr><td><div><table></table></div></td></tr></table></div></td></tr></table></div></td></tr><tr><td style="font-weight:bold;vertical-align:top;">meta</td><td style="vertical-align:top;">:</td><td><div><table><tr><td style="font-weight:bold;vertical-align:top;">author</td><td style="vertical-align:top;">:</td><td><div>Your Name &lt;you@example.com&gt;</div></td></tr><tr><td style="font-weight:bold;vertical-align:top;">description</td><td style="vertical-align:top;">:</td><td><div>a cool new app</div></td></tr><tr><td style="font-weight:bold;vertical-align:top;">generator</td><td style="vertical-align:top;">:</td><td><div>Web2py Web Framework</div></td></tr><tr><td style="font-weight:bold;vertical-align:top;">keywords</td><td style="vertical-align:top;">:</td><td><div>web2py, python, framework</div></td></tr></table></div></td></tr><tr><td style="font-weight:bold;vertical-align:top;">models_to_run</td><td style="vertical-align:top;">:</td><td><div><table><tr><td><div>^\\w+\\.py$</div></td></tr><tr><td><div>^default/\\w+\\.py$</div></td></tr><tr><td><div>^default/player/\\w+\\.py$</div></td></tr></table></div></td></tr><tr><td style="font-weight:bold;vertical-align:top;">postprocessing</td><td style="vertical-align:top;">:</td><td><div><table></table></div></td></tr><tr><td style="font-weight:bold;vertical-align:top;">session_client</td><td style="vertical-align:top;">:</td><td><div>127.0.0.1</div></td></tr><tr><td style="font-weight:bold;vertical-align:top;">session_cookie_compression_level</td><td style="vertical-align:top;">:</td><td><div>None</div></td></tr><tr><td style="font-weight:bold;vertical-align:top;">session_cookie_expires</td><td style="vertical-align:top;">:</td><td><div>None</div></td></tr><tr><td style="font-weight:bold;vertical-align:top;">session_cookie_key</td><td style="vertical-align:top;">:</td><td><div>None</div></td></tr><tr><td style="font-weight:bold;vertical-align:top;">session_data_name</td><td style="vertical-align:top;">:</td><td><div>session_data_rainforest_rhythm</div></td></tr><tr><td style="font-weight:bold;vertical-align:top;">session_file</td><td style="vertical-align:top;">:</td><td><div>&lt;open file &#x27;/Users/dorme/Research/SAFE/Web2Py/web2py/applications/Rainforest_Rhythm/sessions/0e5/01e/127.0.0.1-97b81f58-ac39-4ff7-9ffd-5e44f6ff9431&#x27;, mode &#x27;rb+&#x27; at 0x10ef48270&gt;</div></td></tr><tr><td style="font-weight:bold;vertical-align:top;">session_filename</td><td style="vertical-align:top;">:</td><td><div>/Users/dorme/Research/SAFE/Web2Py/web2py/applications/Rainforest_Rhythm/sessions/127.0.0.1-97b81f58-ac39-4ff7-9ffd-5e44f6ff9431</div></td></tr><tr><td style="font-weight:bold;vertical-align:top;">session_hash</td><td style="vertical-align:top;">:</td><td><div>534536ebb07cbc35d42332520049cfe8</div></td></tr><tr><td style="font-weight:bold;vertical-align:top;">session_id</td><td style="vertical-align:top;">:</td><td><div>127.0.0.1-97b81f58-ac39-4ff7-9ffd-5e44f6ff9431</div></td></tr><tr><td style="font-weight:bold;vertical-align:top;">session_id_name</td><td style="vertical-align:top;">:</td><td><div>session_id_rainforest_rhythm</div></td></tr><tr><td style="font-weight:bold;vertical-align:top;">session_locked</td><td style="vertical-align:top;">:</td><td><div>True</div></td></tr><tr><td style="font-weight:bold;vertical-align:top;">session_masterapp</td><td style="vertical-align:top;">:</td><td><div>Rainforest_Rhythm</div></td></tr><tr><td style="font-weight:bold;vertical-align:top;">session_new</td><td style="vertical-align:top;">:</td><td><div>False</div></td></tr><tr><td style="font-weight:bold;vertical-align:top;">session_storage_type</td><td style="vertical-align:top;">:</td><td><div>file</div></td></tr><tr><td style="font-weight:bold;vertical-align:top;">status</td><td style="vertical-align:top;">:</td><td><div>200</div></td></tr><tr><td style="font-weight:bold;vertical-align:top;">subtitle</td><td style="vertical-align:top;">:</td><td><div></div></td></tr><tr><td style="font-weight:bold;vertical-align:top;">title</td><td style="vertical-align:top;">:</td><td><div>Rainforest Rhythm</div></td></tr><tr><td style="font-weight:bold;vertical-align:top;">view</td><td style="vertical-align:top;">:</td><td><div>default/player.html</div></td></tr></table></div>'
tRp122
sS'locals'
p123
(dp124
S'Service'
p125
S"<class 'gluon.tools.Service'>"
p126
sS'OBJECT'
p127
S"<class 'gluon.html.OBJECT'>"
p128
sS'SQLDB'
p129
S"<class 'pydal.base.DAL'>"
p130
sg115
S"<Storage {'_auth_next': None, 'flash': None, 'au...gin]': ['2c02a901-3c17-40f5-95ae-7eb980278933']}>"
p131
sS'LINK'
p132
S"<class 'gluon.html.LINK'>"
p133
sS'BR'
p134
S"<class 'gluon.html.BR'>"
p135
sS'local_import'
p136
S'<function <lambda>>'
p137
sS'OPTGROUP'
p138
S"<class 'gluon.html.OPTGROUP'>"
p139
sS'_extract_call_and_add_to_db'
p140
S'<function _extract_call_and_add_to_db>'
p141
sS'__package__'
p142
S'None'
p143
sS'PRE'
p144
S"<class 'gluon.html.PRE'>"
p145
sS'IS_INT_IN_RANGE'
p146
S"<class 'gluon.validators.IS_INT_IN_RANGE'>"
p147
sS'left_sidebar_enabled'
p148
S'False'
p149
sS'IS_LOWER'
p150
S"<class 'gluon.validators.IS_LOWER'>"
p151
sS'IS_STRONG'
p152
S"<class 'gluon.validators.IS_STRONG'>"
p153
sS'cache'
p154
S'<gluon.cache.Cache object>'
p155
sS'IS_IN_DB'
p156
S"<class 'gluon.validators.IS_IN_DB'>"
p157
sS'TAG'
p158
S'<gluon.html.__TAG__ object>'
p159
sS'SQLField'
p160
S"<class 'pydal.objects.Field'>"
p161
sS'mail'
p162
S'<gluon.tools.Mail object>'
p163
sS'BODY'
p164
S"<class 'gluon.html.BODY'>"
p165
sS'IS_DATE_IN_RANGE'
p166
S"<class 'gluon.validators.IS_DATE_IN_RANGE'>"
p167
sS'IFRAME'
p168
S"<class 'gluon.html.IFRAME'>"
p169
sS'URL'
p170
S'<function URL>'
p171
sS'__file__'
p172
S"'/Users/dorme/Research/SAFE/Web2Py/web2py/applications/Rainforest_Rhythm/views/default/player.html'"
p173
sS'db'
p174
S'<DAL uri="sqlite://storage.sqlite">'
p175
sS'auth'
p176
S'<gluon.tools.Auth object>'
p177
sS'P'
S"<class 'gluon.html.P'>"
p178
sS'TFOOT'
p179
S"<class 'gluon.html.TFOOT'>"
p180
sS'XHTML'
p181
S"<class 'gluon.html.XHTML'>"
p182
sS'datetime'
p183
S"<module 'datetime' from '/Library/Frameworks/Pyt...sions/2.7/lib/python2.7/lib-dynload/datetime.so'>"
p184
sS'ON'
p185
S'True'
p186
sS'OL'
p187
S"<class 'gluon.html.OL'>"
p188
sS'TEXTAREA'
p189
S"<class 'gluon.html.TEXTAREA'>"
p190
sS'MENU'
p191
S"<class 'gluon.html.MENU'>"
p192
sS'IS_IMAGE'
p193
S"<class 'gluon.validators.IS_IMAGE'>"
p194
sS'EM'
p195
S"<class 'gluon.html.EM'>"
p196
sS'CODE'
p197
S"<class 'gluon.html.CODE'>"
p198
sS'HTTP'
p199
S"<class 'gluon.http.HTTP'>"
p200
sS'HR'
p201
S"<class 'gluon.html.HR'>"
p202
sS'IS_DATETIME'
p203
S"<class 'gluon.validators.IS_DATETIME'>"
p204
sS'STYLE'
p205
S"<class 'gluon.html.STYLE'>"
p206
sS'LABEL'
p207
S"<class 'gluon.html.LABEL'>"
p208
sS'CLEANUP'
p209
S"<class 'gluon.validators.CLEANUP'>"
p210
sS'plugins'
p211
S'<gluon.tools.PluginManager object>'
p212
sS'SELECT'
p213
S"<class 'gluon.html.SELECT'>"
p214
sS'CENTER'
p215
S"<class 'gluon.html.CENTER'>"
p216
sS'Auth'
p217
S"<class 'gluon.tools.Auth'>"
p218
sS'COL'
p219
S"<class 'gluon.html.COL'>"
p220
sS'__builtins__'
p221
S"{'ArithmeticError': <type 'exceptions.ArithmeticError'>, 'AssertionError': <type 'exceptions.AssertionError'>, 'AttributeError': <type 'exceptions.AttributeError'>, 'BaseException': <type 'exceptions.BaseException'>, 'BufferError': <type 'exceptions.BufferError'>, 'BytesWarning': <type 'exceptions.BytesWarning'>, 'DeprecationWarning': <type 'exceptions.DeprecationWarning'>, 'EOFError': <type 'exceptions.EOFError'>, 'Ellipsis': Ellipsis, 'EnvironmentError': <type 'exceptions.EnvironmentError'>, ...}"
p222
sS'HTML'
p223
S"<class 'gluon.html.HTML'>"
p224
sS'score_icons'
p225
S"('glyphicon glyphicon-thumbs-down', 'glyphicon glyphicon-hand-left', 'glyphicon glyphicon-hand-right', 'glyphicon glyphicon-thumbs-up')"
p226
sS'SQLFORM'
p227
S"<class 'gluon.sqlhtml.SQLFORM'>"
p228
sS'T'
S'<gluon.languages.translator object>'
p229
sS'LOAD'
p230
S'<function LOAD>'
p231
sS'redirect'
p232
S'<function redirect>'
p233
sS'FIELDSET'
p234
S"<class 'gluon.html.FIELDSET'>"
p235
sS'calls_block'
p236
S'<gluon.html.DIV object>'
p237
sS'IS_EQUAL_TO'
p238
S"<class 'gluon.validators.IS_EQUAL_TO'>"
p239
sS'embed64'
p240
S'<function embed64>'
p241
sS'IS_LIST_OF'
p242
S"<class 'gluon.validators.IS_LIST_OF'>"
p243
sS'INPUT'
p244
S"<class 'gluon.html.INPUT'>"
p245
sS'EMBED'
p246
S"<class 'gluon.html.EMBED'>"
p247
sS'myconf'
p248
S"{'forms': {'formstyle': 'bootstrap3_inline', 'se...'you@gmail.com', 'server': 'smtp.gmail.com:587'}}"
p249
sS'H2'
p250
S"<class 'gluon.html.H2'>"
p251
sS'H3'
p252
S"<class 'gluon.html.H3'>"
p253
sS'AppConfig'
p254
S'<function AppConfig>'
p255
sS'H1'
p256
S"<class 'gluon.html.H1'>"
p257
sS'H6'
p258
S"<class 'gluon.html.H6'>"
p259
sS'H4'
p260
S"<class 'gluon.html.H4'>"
p261
sS'H5'
p262
S"<class 'gluon.html.H5'>"
p263
sS'UL'
p264
S"<class 'gluon.html.UL'>"
p265
sS'IS_UPPER'
p266
S"<class 'gluon.validators.IS_UPPER'>"
p267
sS'xmlescape'
p268
S'<function xmlescape>'
p269
sS'_your_vote'
p270
S'<function _your_vote>'
p271
sS'IS_TIME'
p272
S"<class 'gluon.validators.IS_TIME'>"
p273
sS'os'
p274
S"<module 'os' from '/Library/Frameworks/Python.framework/Versions/2.7/lib/python2.7/os.pyc'>"
p275
sS'taxa_folder'
p276
S"'/Users/dorme/Research/SAFE/Web2Py/web2py/applications/Rainforest_Rhythm/static/taxa'"
p277
sS'OPTION'
p278
S"<class 'gluon.html.OPTION'>"
p279
sS'TITLE'
p280
S"<class 'gluon.html.TITLE'>"
p281
sS'CRYPT'
p282
S"<class 'gluon.validators.CRYPT'>"
p283
sS'IS_EMPTY_OR'
p284
S"<class 'gluon.validators.IS_EMPTY_OR'>"
p285
sS'MARKMIN'
p286
S"<class 'gluon.html.MARKMIN'>"
p287
sS'__name__'
p288
S"'__restricted__'"
p289
sS'STRONG'
p290
S"<class 'gluon.html.STRONG'>"
p291
sS'mc2'
p292
S"'col-md-6'"
p293
sS'mc1'
p294
S"'col-md-9'"
p295
sS'mc0'
p296
S"'col-md-12'"
p297
sS'service'
p298
S'<gluon.tools.Service object>'
p299
sS'SCRIPT'
p300
S"<class 'gluon.html.SCRIPT'>"
p301
sS'score_nohalos'
p302
S'{-3: <gluon.html.SPAN object>, -1: <gluon.html.SPAN object>, 1: <gluon.html.SPAN object>, 3: <gluon.html.SPAN object>}'
p303
sS'TABLE'
p304
S"<class 'gluon.html.TABLE'>"
p305
sS'IS_IPV4'
p306
S"<class 'gluon.validators.IS_IPV4'>"
p307
sS'IS_LENGTH'
p308
S"<class 'gluon.validators.IS_LENGTH'>"
p309
sS'IS_IPV6'
p310
S"<class 'gluon.validators.IS_IPV6'>"
p311
sS'XML'
p312
S"<class 'gluon.html.XML'>"
p313
sS'B'
S"<class 'gluon.html.B'>"
p314
sS'IMG'
p315
S"<class 'gluon.html.IMG'>"
p316
sS'SQLTABLE'
p317
S"<class 'gluon.sqlhtml.SQLTABLE'>"
p318
sS'IS_MATCH'
p319
S"<class 'gluon.validators.IS_MATCH'>"
p320
sS'IS_ALPHANUMERIC'
p321
S"<class 'gluon.validators.IS_ALPHANUMERIC'>"
p322
sS'score_halos'
p323
S'{-3: <gluon.html.SPAN object>, -1: <gluon.html.SPAN object>, 1: <gluon.html.SPAN object>, 3: <gluon.html.SPAN object>}'
p324
sS'score_colors'
p325
S"('#d7191c', '#fdae61', '#abd9e9', '#2c7bb6')"
p326
sS'SPAN'
p327
S"<class 'gluon.html.SPAN'>"
p328
sS'IS_JSON'
p329
S"<class 'gluon.validators.IS_JSON'>"
p330
sS'IS_IPADDRESS'
p331
S"<class 'gluon.validators.IS_IPADDRESS'>"
p332
sS'IS_SLUG'
p333
S"<class 'gluon.validators.IS_SLUG'>"
p334
sS'record'
p335
S"<Row {'previous_part': None, 'start_datetime': d...th': 'audio/SM300545_0+1_20150909_134611_1.mp3'}>"
p336
sS'BEAUTIFY'
p337
S"<class 'gluon.html.BEAUTIFY'>"
p338
sS'META'
p339
S"<class 'gluon.html.META'>"
p340
sS'regions'
p341
S'u\'[{"start": 0.0, "end": 10.0, "attributes": {"t...20.4001326077, "attributes": {"type": "fixed"}}]\''
p342
sS'BUTTON'
p343
S"<class 'gluon.html.BUTTON'>"
p344
sS'IS_DATE'
p345
S"<class 'gluon.validators.IS_DATE'>"
p346
sS'IS_EMAIL'
p347
S"<class 'gluon.validators.IS_EMAIL'>"
p348
sS'middle_column'
p349
S"'col-md-12'"
p350
sS'IS_NOT_EMPTY'
p351
S"<class 'gluon.validators.IS_NOT_EMPTY'>"
p352
sS'IS_FLOAT_IN_RANGE'
p353
S"<class 'gluon.validators.IS_FLOAT_IN_RANGE'>"
p354
sS'TBODY'
p355
S"<class 'gluon.html.TBODY'>"
p356
sS'CAT'
p357
S"<class 'gluon.html.CAT'>"
p358
sS'Field'
p359
S"<class 'pydal.objects.Field'>"
p360
sS'AudioSegment'
p361
S"<class 'pydub.audio_segment.AudioSegment'>"
p362
sS'IS_LIST_OF_EMAILS'
p363
S"<class 'gluon.validators.IS_LIST_OF_EMAILS'>"
p364
sS'DIV'
p365
S"<class 'gluon.html.DIV'>"
p366
sS'LEGEND'
p367
S"<class 'gluon.html.LEGEND'>"
p368
sS'backward_link'
p369
S'<gluon.html.I object>'
p370
sS'COLGROUP'
p371
S"<class 'gluon.html.COLGROUP'>"
p372
sS'DAL'
p373
S"<class 'pydal.base.DAL'>"
p374
sS'ASSIGNJS'
p375
S'<function ASSIGNJS>'
p376
sS'TR'
p377
S"<class 'gluon.html.TR'>"
p378
sS'LI'
p379
S"<class 'gluon.html.LI'>"
p380
sS'right_sidebar_enabled'
p381
g149
sS'TH'
p382
S"<class 'gluon.html.TH'>"
p383
sS'forward_link'
p384
S'<gluon.html.A object>'
p385
sS'TD'
p386
S"<class 'gluon.html.TD'>"
p387
sS'csv'
p388
S"<module 'csv' from '/Library/Frameworks/Python.framework/Versions/2.7/lib/python2.7/csv.pyc'>"
p389
sS'IS_URL'
p390
S"<class 'gluon.validators.IS_URL'>"
p391
sS'PluginManager'
p392
S"<class 'gluon.tools.PluginManager'>"
p393
sS'A'
S"<class 'gluon.html.A'>"
p394
sS'HEAD'
p395
S"<class 'gluon.html.HEAD'>"
p396
sS'IS_DATETIME_IN_RANGE'
p397
S"<class 'gluon.validators.IS_DATETIME_IN_RANGE'>"
p398
sS'FORM'
p399
S"<class 'gluon.html.FORM'>"
p400
sS'I'
S"<class 'gluon.html.I'>"
p401
sS'IS_NOT_IN_DB'
p402
S"<class 'gluon.validators.IS_NOT_IN_DB'>"
p403
sS'scores'
p404
S'(-3, -1, 1, 3)'
p405
sg121
S"<Storage {'body': <cStringIO.StringO object at 0... at 0x10ef375f0>, 'view': 'default/player.html'}>"
p406
sS'THEAD'
p407
S"<class 'gluon.html.THEAD'>"
p408
sS'ANY_OF'
p409
S"<class 'gluon.validators.ANY_OF'>"
p410
sS'IS_NULL_OR'
p411
S"<class 'gluon.validators.IS_EMPTY_OR'>"
p412
sg56
S"<Storage {'_vars': <Storage {'audio_id': '1'}>, .../Web2Py/web2py/applications/Rainforest_Rhythm/'}>"
p413
sS'IS_EXPR'
p414
S"<class 'gluon.validators.IS_EXPR'>"
p415
sS'_votebar'
p416
S'<function _votebar>'
p417
sS'IS_IN_SET'
p418
S"<class 'gluon.validators.IS_IN_SET'>"
p419
sS'IS_UPLOAD_FILENAME'
p420
S"<class 'gluon.validators.IS_UPLOAD_FILENAME'>"
p421
sS'TT'
p422
S"<class 'gluon.html.TT'>"
p423
sS'IS_DECIMAL_IN_RANGE'
p424
S"<class 'gluon.validators.IS_DECIMAL_IN_RANGE'>"
p425
sssS'traceback'
p426
S'Traceback (most recent call last):\n  File "/Users/dorme/Research/SAFE/Web2Py/web2py/gluon/restricted.py", line 227, in restricted\n    exec ccode in environment\n  File "/Users/dorme/Research/SAFE/Web2Py/web2py/applications/Rainforest_Rhythm/views/default/player.html", line 91, in <module>\n    wavesurfer.load("{{=URL(\'static\', record.static_filepath)}}");\nNameError: name \'rows\' is not defined\n'
p427
s.